###############################################################################
#                                                                             #
# IAR C/C++ Compiler V8.10.3.10338/W32 for 8051         10/Feb/2022  23:46:36 #
# Copyright 2004-2011 IAR Systems AB.                                         #
#                                                                             #
#    Core               =  plain                                              #
#    Code model         =  banked                                             #
#    Data model         =  large                                              #
#    Calling convention =  xdata reentrant                                    #
#    Constant location  =  data_rom                                           #
#    Dptr setup         =  1,16                                               #
#    Source file        =  e:\imtht\Documents\Code\Zigbee\ZStack-2.5.1a\Proje #
#                          cts\zstack\Samples\SampleApp\Source\SampleApp.c    #
#    Command line       =  -f e:\imtht\Documents\Code\Zigbee\ZStack-2.5.1a\Pr #
#                          ojects\zstack\Samples\SampleApp\CC2530DB\..\..\..\ #
#                          Tools\CC2530DB\f8wCoord.cfg (-DCPU32MHZ            #
#                          -DROOT=__near_func -DMAC_CFG_APP_PENDING_QUEUE=TRU #
#                          E -DMAC_CFG_TX_DATA_MAX=5 -DMAC_CFG_TX_MAX=8       #
#                          -DMAC_CFG_RX_MAX=5 -DZDO_COORDINATOR -DRTR_NWK)    #
#                          -f e:\imtht\Documents\Code\Zigbee\ZStack-2.5.1a\Pr #
#                          ojects\zstack\Samples\SampleApp\CC2530DB\..\..\..\ #
#                          Tools\CC2530DB\f8wConfig.cfg (-DZIGBEEPRO          #
#                          -DSECURE=0 -DZG_SECURE_DYNAMIC=0 -DREFLECTOR       #
#                          -DDEFAULT_CHANLIST=0x00000800                      #
#                          -DZDAPP_CONFIG_PAN_ID=0xFFF1                       #
#                          -DNWK_START_DELAY=100 -DEXTENDED_JOINING_RANDOM_MA #
#                          SK=0x007F -DBEACON_REQUEST_DELAY=100               #
#                          -DBEACON_REQ_DELAY_MASK=0x00FF                     #
#                          -DLINK_STATUS_JITTER_MASK=0x007F                   #
#                          -DROUTE_EXPIRY_TIME=30 -DAPSC_ACK_WAIT_DURATION_PO #
#                          LLED=3000 -DNWK_INDIRECT_MSG_TIMEOUT=7             #
#                          -DMAX_RREQ_ENTRIES=8 -DAPSC_MAX_FRAME_RETRIES=3    #
#                          -DNWK_MAX_DATA_RETRIES=2                           #
#                          -DMAX_POLL_FAILURE_RETRIES=2 -DMAX_BCAST=9         #
#                          -DAPS_MAX_GROUPS=16 -DMAX_RTG_ENTRIES=40           #
#                          -DNWK_MAX_BINDING_ENTRIES=4                        #
#                          -DMAX_BINDING_CLUSTER_IDS=4 "-DDEFAULT_KEY={0x01,  #
#                          0x03, 0x05, 0x07, 0x09, 0x0B, 0x0D, 0x0F, 0x00,    #
#                          0x02, 0x04, 0x06, 0x08, 0x0A, 0x0C, 0x0D}"         #
#                          -DMAC_MAX_FRAME_SIZE=116                           #
#                          -DZDNWKMGR_MIN_TRANSMISSIONS=20 "-DCONST=const     #
#                          __code" -DGENERIC=__generic                        #
#                          -DRFD_RCVC_ALWAYS_ON=FALSE -DPOLL_RATE=1000        #
#                          -DQUEUED_POLL_RATE=100 -DRESPONSE_POLL_RATE=100)   #
#                          -DREJOIN_POLL_RATE=440 e:\imtht\Documents\Code\Zig #
#                          bee\ZStack-2.5.1a\Projects\zstack\Samples\SampleAp #
#                          p\Source\SampleApp.c -D ZTOOL_P1 -D xMT_TASK -D    #
#                          xMT_SYS_FUNC -D xMT_ZDO_FUNC -D                    #
#                          LCD_SUPPORTED=DEBUG -lC e:\imtht\Documents\Code\Zi #
#                          gbee\ZStack-2.5.1a\Projects\zstack\Samples\SampleA #
#                          pp\CC2530DB\CoordinatorEB\List\ -lA                #
#                          e:\imtht\Documents\Code\Zigbee\ZStack-2.5.1a\Proje #
#                          cts\zstack\Samples\SampleApp\CC2530DB\CoordinatorE #
#                          B\List\ --diag_suppress Pe001,Pa010 -o             #
#                          e:\imtht\Documents\Code\Zigbee\ZStack-2.5.1a\Proje #
#                          cts\zstack\Samples\SampleApp\CC2530DB\CoordinatorE #
#                          B\Obj\ -e --no_cse --no_unroll --no_inline         #
#                          --no_code_motion --no_tbaa --debug --core=plain    #
#                          --dptr=16,1 --data_model=large                     #
#                          --code_model=banked --calling_convention=xdata_ree #
#                          ntrant --place_constants=data_rom                  #
#                          --nr_virtual_regs 16 -I e:\imtht\Documents\Code\Zi #
#                          gbee\ZStack-2.5.1a\Projects\zstack\Samples\SampleA #
#                          pp\CC2530DB\ -I e:\imtht\Documents\Code\Zigbee\ZSt #
#                          ack-2.5.1a\Projects\zstack\Samples\SampleApp\CC253 #
#                          0DB\..\Source\ -I e:\imtht\Documents\Code\Zigbee\Z #
#                          Stack-2.5.1a\Projects\zstack\Samples\SampleApp\CC2 #
#                          530DB\..\..\..\ZMain\TI2530DB\ -I                  #
#                          e:\imtht\Documents\Code\Zigbee\ZStack-2.5.1a\Proje #
#                          cts\zstack\Samples\SampleApp\CC2530DB\..\..\..\..\ #
#                          ..\Components\hal\include\ -I                      #
#                          e:\imtht\Documents\Code\Zigbee\ZStack-2.5.1a\Proje #
#                          cts\zstack\Samples\SampleApp\CC2530DB\..\..\..\..\ #
#                          ..\Components\hal\target\CC2530EB\ -I              #
#                          e:\imtht\Documents\Code\Zigbee\ZStack-2.5.1a\Proje #
#                          cts\zstack\Samples\SampleApp\CC2530DB\..\..\..\..\ #
#                          ..\Components\mac\include\ -I                      #
#                          e:\imtht\Documents\Code\Zigbee\ZStack-2.5.1a\Proje #
#                          cts\zstack\Samples\SampleApp\CC2530DB\..\..\..\..\ #
#                          ..\Components\mac\high_level\ -I                   #
#                          e:\imtht\Documents\Code\Zigbee\ZStack-2.5.1a\Proje #
#                          cts\zstack\Samples\SampleApp\CC2530DB\..\..\..\..\ #
#                          ..\Components\mac\low_level\srf04\ -I              #
#                          e:\imtht\Documents\Code\Zigbee\ZStack-2.5.1a\Proje #
#                          cts\zstack\Samples\SampleApp\CC2530DB\..\..\..\..\ #
#                          ..\Components\mac\low_level\srf04\single_chip\ -I  #
#                          e:\imtht\Documents\Code\Zigbee\ZStack-2.5.1a\Proje #
#                          cts\zstack\Samples\SampleApp\CC2530DB\..\..\..\..\ #
#                          ..\Components\mt\ -I e:\imtht\Documents\Code\Zigbe #
#                          e\ZStack-2.5.1a\Projects\zstack\Samples\SampleApp\ #
#                          CC2530DB\..\..\..\..\..\Components\osal\include\   #
#                          -I e:\imtht\Documents\Code\Zigbee\ZStack-2.5.1a\Pr #
#                          ojects\zstack\Samples\SampleApp\CC2530DB\..\..\..\ #
#                          ..\..\Components\services\saddr\ -I                #
#                          e:\imtht\Documents\Code\Zigbee\ZStack-2.5.1a\Proje #
#                          cts\zstack\Samples\SampleApp\CC2530DB\..\..\..\..\ #
#                          ..\Components\services\sdata\ -I                   #
#                          e:\imtht\Documents\Code\Zigbee\ZStack-2.5.1a\Proje #
#                          cts\zstack\Samples\SampleApp\CC2530DB\..\..\..\..\ #
#                          ..\Components\stack\af\ -I                         #
#                          e:\imtht\Documents\Code\Zigbee\ZStack-2.5.1a\Proje #
#                          cts\zstack\Samples\SampleApp\CC2530DB\..\..\..\..\ #
#                          ..\Components\stack\nwk\ -I                        #
#                          e:\imtht\Documents\Code\Zigbee\ZStack-2.5.1a\Proje #
#                          cts\zstack\Samples\SampleApp\CC2530DB\..\..\..\..\ #
#                          ..\Components\stack\sapi\ -I                       #
#                          e:\imtht\Documents\Code\Zigbee\ZStack-2.5.1a\Proje #
#                          cts\zstack\Samples\SampleApp\CC2530DB\..\..\..\..\ #
#                          ..\Components\stack\sec\ -I                        #
#                          e:\imtht\Documents\Code\Zigbee\ZStack-2.5.1a\Proje #
#                          cts\zstack\Samples\SampleApp\CC2530DB\..\..\..\..\ #
#                          ..\Components\stack\sys\ -I                        #
#                          e:\imtht\Documents\Code\Zigbee\ZStack-2.5.1a\Proje #
#                          cts\zstack\Samples\SampleApp\CC2530DB\..\..\..\..\ #
#                          ..\Components\stack\zdo\ -I                        #
#                          e:\imtht\Documents\Code\Zigbee\ZStack-2.5.1a\Proje #
#                          cts\zstack\Samples\SampleApp\CC2530DB\..\..\..\..\ #
#                          ..\Components\zmac\ -I e:\imtht\Documents\Code\Zig #
#                          bee\ZStack-2.5.1a\Projects\zstack\Samples\SampleAp #
#                          p\CC2530DB\..\..\..\..\..\Components\zmac\f8w\ -On #
#    List file          =  e:\imtht\Documents\Code\Zigbee\ZStack-2.5.1a\Proje #
#                          cts\zstack\Samples\SampleApp\CC2530DB\CoordinatorE #
#                          B\List\SampleApp.lst                               #
#    Object file        =  e:\imtht\Documents\Code\Zigbee\ZStack-2.5.1a\Proje #
#                          cts\zstack\Samples\SampleApp\CC2530DB\CoordinatorE #
#                          B\Obj\SampleApp.r51                                #
#                                                                             #
#                                                                             #
###############################################################################

e:\imtht\Documents\Code\Zigbee\ZStack-2.5.1a\Projects\zstack\Samples\SampleApp\Source\SampleApp.c
      1          /*********************************************************************
      2          注意调整mqtt.h中以下三个值可能是修改,解包的时候使用
      3          #define max_packet_len  300     //封包的最大长度
      4          #define MAX_CMDID_TOPIC_LEN  70   //主题的最大长度
      5          #define MAX_REQ_PAYLOAD_LEN  150   //内容的最大长度
      6          注意需要按实际需要增加MqttKit.h中以下二个枚举数组的定义值，定义数字请参见http://docs.oasis-open.org/mqtt/mqtt/v3.1.1/os/mqtt-v3.1.1-os.html#_Toc398718019 (Table 2.1 - Control packet types)
      7          MqttPacketType
      8          MqttQosLevel
      9          注意本文件中SampleApp_CallBack函数出现2次，猜测为上任作者忘记注释出厂代码，注释掉后无影响
     10          
     11          2021年11月7日02点36分 imtht@outlook.com
     12          */
     13          
     14          /*********************************************************************
     15          * INCLUDES
     16          */
     17          
     18          #include <stdio.h>
     19          #include <string.h>
     20          #include "AF.h"
     21          #include "OnBoard.h"

   \                                 In  segment SFR_AN, at 0x80
   \   union <unnamed> volatile __sfr _A_P0
   \                     _A_P0:
   \   000000                DS 1

   \                                 In  segment SFR_AN, at 0x90
   \   union <unnamed> volatile __sfr _A_P1
   \                     _A_P1:
   \   000000                DS 1
     22          #include "OSAL_Tasks.h"
     23          #include "SampleApp.h"
     24          #include "ZDApp.h"
     25          #include "ZDObject.h"
     26          #include "ZDProfile.h"
     27          
     28          //增加include START
     29          #include "aps_groups.h"
     30          //增加include END
     31          
     32          #include "hal_drivers.h"
     33          #include "hal_key.h"
     34          #if defined ( LCD_SUPPORTED )
     35          #include "hal_lcd.h"
     36          #endif
     37          #include "hal_led.h"
     38          #include "hal_uart.h"
     39          
     40          #ifdef ZDO_COORDINATOR
     41          //协议文件
     42          #include "mqtt.h"
     43          #include "mqttkit.h"
     44          
     45          #else
     46          
     47          #include "dht11.h"
     48          
     49          #endif
     50          
     51          
     52          /*********************************************************************
     53          * MACROS
     54          */
     55          
     56          /*********************************************************************
     57          * CONSTANTS
     58          */
     59          
     60          #if !defined( SAMPLE_APP_PORT )
     61          #define SAMPLE_APP_PORT  0
     62          #endif
     63          
     64          #if !defined( SAMPLE_APP_RX_MAX )
     65          #define SAMPLE_APP_RX_MAX  300
     66          #endif
     67          #define Z_EXTADDR_LEN   8
     68          
     69          // This list should be filled with Application specific Cluster IDs.

   \                                 In  segment XDATA_ROM_C, align 1
     70          const cId_t SampleApp_ClusterList[SAMPLE_MAX_CLUSTERS] =
   \                     SampleApp_ClusterList:
   \   000000   0100         DW 1
   \   000002   0200         DW 2
   \   000004   0300         DW 3
     71          {
     72            SAMPLEAPP_P2P_CLUSTERID,
     73            SAMPLEAPP_PERIODIC_CLUSTERID,
     74            SERIALAPP_CONNECTREQ_CLUSTER
     75          };
     76          

   \                                 In  segment XDATA_ROM_C, align 1
     77          const SimpleDescriptionFormat_t SampleApp_SimpleDesc =
   \                     SampleApp_SimpleDesc:
   \   000000   0B           DB 11
   \   000001   050F         DW 3845
   \   000003   0100         DW 1
   \   000005   00           DB 0
   \   000006   03           DB 3
   \   000007   ....         DW SampleApp_ClusterList
   \   000009   03           DB 3
   \   00000A   ....         DW SampleApp_ClusterList
     78          {
     79            SAMPLEAPP_ENDPOINT,              //  int   Endpoint;
     80            SAMPLEAPP_PROFID,                //  uint16 AppProfId[2];
     81            SAMPLEAPP_DEVICEID,              //  uint16 AppDeviceId[2];
     82            SAMPLEAPP_DEVICE_VERSION,        //  int   AppDevVer:4;
     83            SAMPLEAPP_FLAGS,                 //  int   AppFlags:4;
     84            SAMPLE_MAX_CLUSTERS,          //  byte  AppNumInClusters;
     85            (cId_t *)SampleApp_ClusterList,  //  byte *pAppInClusterList;
     86            SAMPLE_MAX_CLUSTERS,          //  byte  AppNumOutClusters;
     87            (cId_t *)SampleApp_ClusterList   //  byte *pAppOutClusterList;
     88          };
     89          

   \                                 In  segment XDATA_I, align 1, keep-with-next
     90          endPointDesc_t SampleApp_epDesc =
   \                     SampleApp_epDesc:
   \   000000                DS 6
   \   000006                REQUIRE `?<Initializer for SampleApp_epDesc>`
   \   000006                REQUIRE __INIT_XDATA_I
     91          {
     92            SAMPLEAPP_ENDPOINT,
     93            &SampleApp_TaskID,
     94            (SimpleDescriptionFormat_t *)&SampleApp_SimpleDesc,
     95            noLatencyReqs
     96          };
     97          
     98          /*********************************************************************
     99          * TYPEDEFS
    100          */
    101          
    102          /*********************************************************************
    103          * GLOBAL VARIABLES
    104          */

   \                                 In  segment XDATA_Z, align 1, keep-with-next
    105          devStates_t SampleApp_NwkState;
   \                     SampleApp_NwkState:
   \   000000                DS 1
   \   000001                REQUIRE __INIT_XDATA_Z

   \                                 In  segment XDATA_Z, align 1, keep-with-next
    106          uint8 SampleApp_TaskID;           // Task ID for internal task/event processing.
   \                     SampleApp_TaskID:
   \   000000                DS 1
   \   000001                REQUIRE __INIT_XDATA_Z
    107          
    108          /*********************************************************************
    109          * EXTERNAL VARIABLES
    110          */
    111          
    112          /*********************************************************************
    113          * EXTERNAL FUNCTIONS
    114          */
    115          
    116          /*********************************************************************
    117          * LOCAL VARIABLES
    118          */
    119          
    120          static uint8 SampleApp_MsgID;
    121          

   \                                 In  segment XDATA_Z, align 1, keep-with-next
    122          afAddrType_t SampleApp_P2P_DstAddr;      //点播
   \                     SampleApp_P2P_DstAddr:
   \   000000                DS 12
   \   00000C                REQUIRE __INIT_XDATA_Z
    123          //增加变量START

   \                                 In  segment XDATA_Z, align 1, keep-with-next
    124          afAddrType_t SampleApp_Periodic_DstAddr;  //广播
   \                     SampleApp_Periodic_DstAddr:
   \   000000                DS 12
   \   00000C                REQUIRE __INIT_XDATA_Z

   \                                 In  segment XDATA_Z, align 1, keep-with-next
    125          aps_Group_t SampleApp_Group;
   \                     SampleApp_Group:
   \   000000                DS 18
   \   000012                REQUIRE __INIT_XDATA_Z

   \                                 In  segment XDATA_I, align 1, keep-with-next
    126          uint8 DevicesIEEEAddr[4][17]={"00124B0006F7E953","00124B0006F78A1F","00124B0006F7EAFD","00124B001FBE1D86"};
   \                     DevicesIEEEAddr:
   \   000000                DS 68
   \   000044                REQUIRE `?<Initializer for DevicesIEEEAddr>`
   \   000044                REQUIRE __INIT_XDATA_I

   \                                 In  segment XDATA_I, align 1, keep-with-next
    127          uint16 DevicesShortAddr[4]={-1,-1,-1,-1};
   \                     DevicesShortAddr:
   \   000000                DS 8
   \   000008                REQUIRE `?<Initializer for DevicesShortAddr>`
   \   000008                REQUIRE __INIT_XDATA_I

   \                                 In  segment XDATA_Z, align 1, keep-with-next
    128          int devicesOnline[4]={0,0,0,0};//设备在线状态实时码，跟随终端心跳刷新
   \                     devicesOnline:
   \   000000                DS 8
   \   000008                REQUIRE __INIT_XDATA_Z

   \                                 In  segment XDATA_Z, align 1, keep-with-next
    129          int devicesOnlineStatus[4]={0,0,0,0};//设备在线状态码，跟随协调器定时任务刷新
   \                     devicesOnlineStatus:
   \   000000                DS 8
   \   000008                REQUIRE __INIT_XDATA_Z

   \                                 In  segment XDATA_Z, align 1, keep-with-next
    130          bool flag_COOR_CHECK_or_ENDDEV_HEART_BEAT_EVT=false;//判断SAMPLEAPP_COOR_CHECK_DEV_EVT,SAMPLEAPP_ENDDEV_HEART_BEAT_EVT是否被触发，防止重复触发
   \                     flag_COOR_CHECK_or_ENDDEV_HEART_BEAT_EVT:
   \   000000                DS 1
   \   000001                REQUIRE __INIT_XDATA_Z

   \                                 In  segment XDATA_Z, align 1, keep-with-next
    131          uint8 MqttRecMsg[200]={'\0'};//缓存mqtt触发的系统事件消息
   \                     MqttRecMsg:
   \   000000                DS 200
   \   0000C8                REQUIRE __INIT_XDATA_Z
    132          

   \                                 In  segment XDATA_I, align 1, keep-with-next
    133          uint16 NwkAddr = 0xFFFF;
   \                     NwkAddr:
   \   000000                DS 2
   \   000002                REQUIRE `?<Initializer for NwkAddr>`
   \   000002                REQUIRE __INIT_XDATA_I

   \                                 In  segment XDATA_Z, align 1, keep-with-next
    134          uint8 MacAddr[8]={0};
   \                     MacAddr:
   \   000000                DS 8
   \   000008                REQUIRE __INIT_XDATA_Z

   \                                 In  segment XDATA_Z, align 1, keep-with-next
    135          uint8 SampleApp_TransID;  // This is the unique message ID (counter)
   \                     SampleApp_TransID:
   \   000000                DS 1
   \   000001                REQUIRE __INIT_XDATA_Z
    136          void SampleApp_getIEEEAddr(uint8* IEEEAddr);//length of IEEEAddr should be Z_EXTADDR_LEN*2
    137          int SampleApp_SendPointToPointMessage(uint16 ReceiveAddr,uint16 DataId,uint8* SendData,uint16 Lens );//ReceiveAddr为接受设备的地址，DataId为数据识别码，4位16进制码，Lens仅写SendData长度即可
    138          void Response2mqtt(uint8* returnMsg,uint8* flow);//向服务器发送消息
    139          //增加变量END

   \                                 In  segment XDATA_Z, align 1, keep-with-next
    140          static uint8 SampleApp_RxBuf[SAMPLE_APP_RX_MAX+1]={0};
   \                     SampleApp_RxBuf:
   \   000000                DS 301
   \   00012D                REQUIRE __INIT_XDATA_Z

   \                                 In  segment XDATA_Z, align 1, keep-with-next
    141          static uint16 SampleApp_RxLen=0;
   \                     SampleApp_RxLen:
   \   000000                DS 2
   \   000002                REQUIRE __INIT_XDATA_Z
    142          

   \                                 In  segment XDATA_Z, align 1, keep-with-next
    143          uint8 onenet_login_ok=0;//onenet注册成功 0:未注册，1：注册中　2：注册成功
   \                     onenet_login_ok:
   \   000000                DS 1
   \   000001                REQUIRE __INIT_XDATA_Z

   \                                 In  segment XDATA_Z, align 1, keep-with-next
    144          uint8 end_temp;//终端的温度
   \                     end_temp:
   \   000000                DS 1
   \   000001                REQUIRE __INIT_XDATA_Z

   \                                 In  segment XDATA_Z, align 1, keep-with-next
    145          uint8 end_hum;//终端的湿度
   \                     end_hum:
   \   000000                DS 1
   \   000001                REQUIRE __INIT_XDATA_Z
    146          
    147          
    148          #ifdef ZDO_COORDINATOR

   \                                 In  segment XDATA_Z, align 1, keep-with-next
    149          signed char *g_mqtt_topics_set[5] = {NULL};
   \                     g_mqtt_topics_set:
   \   000000                DS 10
   \   00000A                REQUIRE __INIT_XDATA_Z

   \                                 In  segment XDATA_Z, align 1, keep-with-next
    150          u8 topics_buff[60]={0};
   \                     topics_buff:
   \   000000                DS 60
   \   00003C                REQUIRE __INIT_XDATA_Z

   \                                 In  segment XDATA_Z, align 1, keep-with-next
    151          u8 topics_post[100]={0}; //发布的主题
   \                     topics_post:
   \   000000                DS 100
   \   000064                REQUIRE __INIT_XDATA_Z

   \                                 In  segment XDATA_Z, align 1, keep-with-next
    152          u8 mqtt_message[200]={0};//发布的消息
   \                     mqtt_message:
   \   000000                DS 200
   \   0000C8                REQUIRE __INIT_XDATA_Z
    153          #endif
    154          
    155          /*********************************************************************
    156          * LOCAL FUNCTIONS
    157          */
    158          
    159          static void SampleApp_ProcessMSGCmd( afIncomingMSGPacket_t *pkt );
    160          void SampleApp_CallBack(uint8 port, uint8 event);
    161          static void SampleApp_Send_P2P_Message( void );
    162          bool OneNet_publish_topic(const char *topic, const char *msg);
    163          void debug(uint8 * msg, ...);
    164          
    165          /*********************************************************************
    166          * @fn      SampleApp_Init
    167          *
    168          * @brief   This is called during OSAL tasks' initialization.
    169          *
    170          * @param   task_id - the Task ID assigned by OSAL.
    171          *
    172          * @return  none
    173          */

   \                                 In  segment BANKED_CODE, align 1, keep-with-next
    174          void SampleApp_Init( uint8 task_id )
   \                     SampleApp_Init:
    175          {
   \   000000   74F5         MOV     A,#-0xb
   \   000002   12....       LCALL   ?BANKED_ENTER_XDATA
   \   000005                ; Saved register size: 11
   \   000005                ; Auto size: 0
   \   000005   E9           MOV     A,R1
   \   000006   FE           MOV     R6,A
    176            halUARTCfg_t uartConfig;
    177            
    178            SampleApp_TaskID = task_id;
   \   000007   EE           MOV     A,R6
   \   000008   90....       MOV     DPTR,#SampleApp_TaskID
   \   00000B   F0           MOVX    @DPTR,A
    179            SampleApp_NwkState = DEV_INIT;
   \   00000C   90....       MOV     DPTR,#SampleApp_NwkState
   \   00000F   7401         MOV     A,#0x1
   \   000011   F0           MOVX    @DPTR,A
    180            
    181            MT_UartInit();                  //串口初始化
                   ^
Warning[Pe223]: function "MT_UartInit" declared implicitly
   \   000012                ; Setup parameters for call to function MT_UartInit
   \   000012   12....       LCALL   ??MT_UartInit?relay
    182            MT_UartRegisterTaskID(task_id); //注册串口任务
                   ^
Warning[Pe223]: function "MT_UartRegisterTaskID" declared implicitly
   \   000015                ; Setup parameters for call to function MT_UartRegisterTaskID
   \   000015   8E..         MOV     ?V0 + 0,R6
   \   000017   75..00       MOV     ?V0 + 1,#0x0
   \   00001A   AA..         MOV     R2,?V0 + 0
   \   00001C   AB..         MOV     R3,?V0 + 1
   \   00001E   12....       LCALL   ??MT_UartRegisterTaskID?relay
    183            afRegister( (endPointDesc_t *)&SampleApp_epDesc );
   \   000021                ; Setup parameters for call to function afRegister
   \   000021   7A..         MOV     R2,#SampleApp_epDesc & 0xff
   \   000023   7B..         MOV     R3,#(SampleApp_epDesc >> 8) & 0xff
   \   000025   12....       LCALL   ??afRegister?relay
   \   000028   E9           MOV     A,R1
    184            RegisterForKeys( task_id );
   \   000029                ; Setup parameters for call to function RegisterForKeys
   \   000029   EE           MOV     A,R6
   \   00002A   F9           MOV     R1,A
   \   00002B   12....       LCALL   ??RegisterForKeys?relay
   \   00002E   E9           MOV     A,R1
    185            //逢蜂鸣器初始化
    186            
    187            
    188          #ifdef ZDO_COORDINATOR
    189            //协调器初始化
    190            
    191            
    192            //默认蜂鸣器不响
    193            //P0_5=1;
    194            
    195            //初始化发布的主题
    196            //  sprintf(topics_post, "/sys/%s/%s/thing/service/switch:GetSwitchStatus",ProductKey,DeviceName);
    197          //  sprintf(topics_post, "/a1xaMw4YerO/device/user/transfer");
    198            //初始化订阅的主题
    199          //  sprintf(topics_buff, "/a1xaMw4YerO/device/user/receive");
    200            
    201              sprintf(topics_post, TOPICS_POST);
                             ^
Warning[Pe167]: argument of type "unsigned char *" is incompatible with
          parameter of type "char *"
   \   00002F                ; Setup parameters for call to function sprintf
   \   00002F   7C..         MOV     R4,#`?<Constant "/a1xaMw4YerO/device/u...">` & 0xff
   \   000031   7D..         MOV     R5,#(`?<Constant "/a1xaMw4YerO/device/u...">` >> 8) & 0xff
   \   000033   7A..         MOV     R2,#topics_post & 0xff
   \   000035   7B..         MOV     R3,#(topics_post >> 8) & 0xff
   \   000037   12....       LCALL   ??sprintf?relay
    202            //初始化订阅的主题
    203            sprintf(topics_buff, TOPICS_BUFF);
                           ^
Warning[Pe167]: argument of type "unsigned char *" is incompatible with
          parameter of type "char *"
   \   00003A                ; Setup parameters for call to function sprintf
   \   00003A   7C..         MOV     R4,#`?<Constant "/a1xaMw4YerO/device/u...">_1` & 0xff
   \   00003C   7D..         MOV     R5,#(`?<Constant "/a1xaMw4YerO/device/u...">_1` >> 8) & 0xff
   \   00003E   7A..         MOV     R2,#topics_buff & 0xff
   \   000040   7B..         MOV     R3,#(topics_buff >> 8) & 0xff
   \   000042   12....       LCALL   ??sprintf?relay
    204            
    205            g_mqtt_topics_set[0]=topics_buff;
                                       ^
Warning[Pe513]: a value of type "unsigned char *" cannot be assigned to an
          entity of type "signed char *"
   \   000045   90....       MOV     DPTR,#g_mqtt_topics_set
   \   000048   74..         MOV     A,#topics_buff & 0xff
   \   00004A   F0           MOVX    @DPTR,A
   \   00004B   A3           INC     DPTR
   \   00004C   74..         MOV     A,#(topics_buff >> 8) & 0xff
   \   00004E   F0           MOVX    @DPTR,A
    206          #else
    207            
    208            P0SEL &= ~0xa0;                 //设置P05和P07为普通IO口
    209            P0DIR |= 0xa0;                 //P05和P07定义为输出口
    210          #endif
    211            
    212            SampleApp_P2P_DstAddr.addrMode = (afAddrMode_t)Addr16Bit; //点播
   \   00004F   90....       MOV     DPTR,#SampleApp_P2P_DstAddr + 8
   \   000052   7402         MOV     A,#0x2
   \   000054   F0           MOVX    @DPTR,A
    213            SampleApp_P2P_DstAddr.endPoint = SAMPLEAPP_ENDPOINT;
   \   000055   90....       MOV     DPTR,#SampleApp_P2P_DstAddr + 9
   \   000058   740B         MOV     A,#0xb
   \   00005A   F0           MOVX    @DPTR,A
    214            SampleApp_P2P_DstAddr.addr.shortAddr = 0x0000;            //发给协调器
   \   00005B   90....       MOV     DPTR,#SampleApp_P2P_DstAddr
   \   00005E   7400         MOV     A,#0x0
   \   000060   F0           MOVX    @DPTR,A
   \   000061   A3           INC     DPTR
   \   000062   7400         MOV     A,#0x0
   \   000064   F0           MOVX    @DPTR,A
    215            
    216            // Setup for the periodic message's destination address 设置发送数据的方式和目的地址寻址模式
    217            // Broadcast to everyone 发送模式:广播发送
    218            SampleApp_Periodic_DstAddr.addrMode = (afAddrMode_t)AddrBroadcast;//广播
   \   000065   90....       MOV     DPTR,#SampleApp_Periodic_DstAddr + 8
   \   000068   740F         MOV     A,#0xf
   \   00006A   F0           MOVX    @DPTR,A
    219            SampleApp_Periodic_DstAddr.endPoint = SAMPLEAPP_ENDPOINT; //指定端点号
   \   00006B   90....       MOV     DPTR,#SampleApp_Periodic_DstAddr + 9
   \   00006E   740B         MOV     A,#0xb
   \   000070   F0           MOVX    @DPTR,A
    220            SampleApp_Periodic_DstAddr.addr.shortAddr = 0xFFFF;//指定目的网络地址为广播地址
   \   000071   90....       MOV     DPTR,#SampleApp_Periodic_DstAddr
   \   000074   74FF         MOV     A,#-0x1
   \   000076   F0           MOVX    @DPTR,A
   \   000077   A3           INC     DPTR
   \   000078   74FF         MOV     A,#-0x1
   \   00007A   F0           MOVX    @DPTR,A
    221            
    222            // By default, all devices start out in Group 1
    223            SampleApp_Group.ID = 0x0001;//组号
   \   00007B   90....       MOV     DPTR,#SampleApp_Group
   \   00007E   7401         MOV     A,#0x1
   \   000080   F0           MOVX    @DPTR,A
   \   000081   A3           INC     DPTR
   \   000082   7400         MOV     A,#0x0
   \   000084   F0           MOVX    @DPTR,A
    224            osal_memcpy( SampleApp_Group.name, "Group 1", 7  );//设定组名
   \   000085                ; Setup parameters for call to function osal_memcpy
   \   000085   75....       MOV     ?V0 + 0,#`?<Constant "Group 1">` & 0xff
   \   000088   75....       MOV     ?V0 + 1,#(`?<Constant "Group 1">` >> 8) & 0xff
   \   00008B   75..00       MOV     ?V0 + 2,#0x0
   \   00008E   78..         MOV     R0,#?V0 + 0
   \   000090   12....       LCALL   ?PUSH_XSTACK_I_THREE
   \   000093   7C07         MOV     R4,#0x7
   \   000095   7D00         MOV     R5,#0x0
   \   000097   7A..         MOV     R2,#(SampleApp_Group + 2) & 0xff
   \   000099   7B..         MOV     R3,#((SampleApp_Group + 2) >> 8) & 0xff
   \   00009B   12....       LCALL   ??osal_memcpy?relay
   \   00009E   7403         MOV     A,#0x3
   \   0000A0   12....       LCALL   ?DEALLOC_XSTACK8
    225            aps_AddGroup( SAMPLEAPP_ENDPOINT, &SampleApp_Group );//把该组登记添加到APS中
   \   0000A3                ; Setup parameters for call to function aps_AddGroup
   \   0000A3   7A..         MOV     R2,#SampleApp_Group & 0xff
   \   0000A5   7B..         MOV     R3,#(SampleApp_Group >> 8) & 0xff
   \   0000A7   790B         MOV     R1,#0xb
   \   0000A9   12....       LCALL   ??aps_AddGroup?relay
   \   0000AC   E9           MOV     A,R1
    226            
    227          #if defined ( LCD_SUPPORTED )
    228            HalLcdWriteString( "SampleApp", HAL_LCD_LINE_1 ); //如果支持LCD，显示提示信息
   \   0000AD                ; Setup parameters for call to function HalLcdWriteString
   \   0000AD   7901         MOV     R1,#0x1
   \   0000AF   7A..         MOV     R2,#`?<Constant "SampleApp">` & 0xff
   \   0000B1   7B..         MOV     R3,#(`?<Constant "SampleApp">` >> 8) & 0xff
   \   0000B3   12....       LCALL   ??HalLcdWriteString?relay
    229          #endif
    230            
    231            NwkAddr = NLME_GetShortAddr();//maybe unused
   \   0000B6                ; Setup parameters for call to function NLME_GetShortAddr
   \   0000B6   12....       LCALL   ??NLME_GetShortAddr?relay
   \   0000B9   90....       MOV     DPTR,#NwkAddr
   \   0000BC   EA           MOV     A,R2
   \   0000BD   F0           MOVX    @DPTR,A
   \   0000BE   A3           INC     DPTR
   \   0000BF   EB           MOV     A,R3
   \   0000C0   F0           MOVX    @DPTR,A
    232            memcpy(MacAddr,NLME_GetExtAddr(),8);//maybe unused
   \   0000C1                ; Setup parameters for call to function memcpy
   \   0000C1   75..08       MOV     ?V0 + 0,#0x8
   \   0000C4   75..00       MOV     ?V0 + 1,#0x0
   \   0000C7   78..         MOV     R0,#?V0 + 0
   \   0000C9   12....       LCALL   ?PUSH_XSTACK_I_TWO
   \   0000CC                ; Setup parameters for call to function NLME_GetExtAddr
   \   0000CC   12....       LCALL   ??NLME_GetExtAddr?relay
   \   0000CF   EA           MOV     A,R2
   \   0000D0   FC           MOV     R4,A
   \   0000D1   EB           MOV     A,R3
   \   0000D2   FD           MOV     R5,A
   \   0000D3   7A..         MOV     R2,#MacAddr & 0xff
   \   0000D5   7B..         MOV     R3,#(MacAddr >> 8) & 0xff
   \   0000D7   12....       LCALL   ??memcpy?relay
   \   0000DA   7402         MOV     A,#0x2
   \   0000DC   12....       LCALL   ?DEALLOC_XSTACK8
    233            
    234          }
   \   0000DF   7F03         MOV     R7,#0x3
   \   0000E1   02....       LJMP    ?BANKED_LEAVE_XDATA
    235          

   \                                 In  segment BANKED_CODE, align 1, keep-with-next
    236          void SampleApp_HandleKeys( uint8 shift, uint8 keys )
   \                     SampleApp_HandleKeys:
    237          {
   \   000000   74F6         MOV     A,#-0xa
   \   000002   12....       LCALL   ?BANKED_ENTER_XDATA
   \   000005                ; Saved register size: 10
   \   000005                ; Auto size: 0
   \   000005   E9           MOV     A,R1
   \   000006   FE           MOV     R6,A
   \   000007   EA           MOV     A,R2
   \   000008   FF           MOV     R7,A
    238            (void)shift;  // Intentionally unreferenced parameter
    239            
    240          #if defined(ZDO_COORDINATOR)
    241            
    242            if ( keys & HAL_KEY_SW_6 )//key1
   \   000009   EF           MOV     A,R7
   \   00000A   A2E5         MOV     C,0xE0 /* A   */.5
   \   00000C   502A         JNC     ??SampleApp_HandleKeys_0
    243            {
    244              SampleApp_SendPointToPointMessage(DevicesShortAddr[2],0x1002,"1002 msg",16);
   \   00000E                ; Setup parameters for call to function SampleApp_SendPointToPointMessage
   \   00000E   75..10       MOV     ?V0 + 0,#0x10
   \   000011   75..00       MOV     ?V0 + 1,#0x0
   \   000014   78..         MOV     R0,#?V0 + 0
   \   000016   12....       LCALL   ?PUSH_XSTACK_I_TWO
   \   000019   75....       MOV     ?V0 + 0,#`?<Constant "1002 msg">` & 0xff
   \   00001C   75....       MOV     ?V0 + 1,#(`?<Constant "1002 msg">` >> 8) & 0xff
   \   00001F   78..         MOV     R0,#?V0 + 0
   \   000021   12....       LCALL   ?PUSH_XSTACK_I_TWO
   \   000024   7C02         MOV     R4,#0x2
   \   000026   7D10         MOV     R5,#0x10
   \   000028   90....       MOV     DPTR,#DevicesShortAddr + 4
   \   00002B   E0           MOVX    A,@DPTR
   \   00002C   FA           MOV     R2,A
   \   00002D   A3           INC     DPTR
   \   00002E   E0           MOVX    A,@DPTR
   \   00002F   FB           MOV     R3,A
   \   000030   12....       LCALL   ??SampleApp_SendPointToPointMessage?relay
   \   000033   7404         MOV     A,#0x4
   \   000035   12....       LCALL   ?DEALLOC_XSTACK8
    245              //    const signed char *g_mqtt_topics[] = {"mqtt_topic_test1"};
    246              //    if(0 == mqtt_subscribe_topic(g_mqtt_topics, 1))
    247              //    {
    248              //      
    249              //    }
    250            }
    251            
    252            if ( keys & HAL_KEY_SW_1 )//key2
   \                     ??SampleApp_HandleKeys_0:
   \   000038   EF           MOV     A,R7
   \   000039   A2E0         MOV     C,0xE0 /* A   */.0
   \   00003B   502A         JNC     ??SampleApp_HandleKeys_1
    253            {
    254              SampleApp_SendPointToPointMessage(DevicesShortAddr[2],0x1004,"1004 msg",70);
   \   00003D                ; Setup parameters for call to function SampleApp_SendPointToPointMessage
   \   00003D   75..46       MOV     ?V0 + 0,#0x46
   \   000040   75..00       MOV     ?V0 + 1,#0x0
   \   000043   78..         MOV     R0,#?V0 + 0
   \   000045   12....       LCALL   ?PUSH_XSTACK_I_TWO
   \   000048   75....       MOV     ?V0 + 0,#`?<Constant "1004 msg">` & 0xff
   \   00004B   75....       MOV     ?V0 + 1,#(`?<Constant "1004 msg">` >> 8) & 0xff
   \   00004E   78..         MOV     R0,#?V0 + 0
   \   000050   12....       LCALL   ?PUSH_XSTACK_I_TWO
   \   000053   7C04         MOV     R4,#0x4
   \   000055   7D10         MOV     R5,#0x10
   \   000057   90....       MOV     DPTR,#DevicesShortAddr + 4
   \   00005A   E0           MOVX    A,@DPTR
   \   00005B   FA           MOV     R2,A
   \   00005C   A3           INC     DPTR
   \   00005D   E0           MOVX    A,@DPTR
   \   00005E   FB           MOV     R3,A
   \   00005F   12....       LCALL   ??SampleApp_SendPointToPointMessage?relay
   \   000062   7404         MOV     A,#0x4
   \   000064   12....       LCALL   ?DEALLOC_XSTACK8
    255              //    if(0==SampleApp_SendPointToPointMessage(DevicesShortAddr[2],0x1004,MqttRecMsg,strlen(MqttRecMsg)))
    256              //    {
    257              //      memset(MqttRecMsg,0,sizeof(MqttRecMsg));
    258              //    }
    259              if(onenet_login_ok==2)
    260              {
    261                //发送温湿度数据到onenet
    262                //    OneNet_SendData(end_temp, end_hum);
    263                
    264          //      sprintf(mqtt_message,
    265          //              "{\"method\":\"thing.service.property.set\",\"id\":\"630262306\",\"params\":{\
    266          //                \"code\":2,\
    267          //    },\"version\":\"1.0.0\"}"
    268          //      );
    269                //HalLcdWriteString("111", HAL_LCD_LINE_1); //LCD显示
    270                //发布主题
    271          //      mqtt_publish_topic(topics_post, mqtt_message);
    272                
    273                //  OneNet_publish_topic();
    274              }
    275            }
    276            
    277          #else
    278            if ( keys & HAL_KEY_SW_6 )//key1
    279            {
    280              
    281              
    282              SampleApp_SendPointToPointMessage(0x0000,0x1001,"1001 msg",16);
    283              //P0_5 = 1;
    284              //HalLcdWriteString("P0_5 = 1", HAL_LCD_LINE_3);
    285            }
    286            
    287            if ( keys & HAL_KEY_SW_1 )//key2
    288            {
    289              
    290              SampleApp_SendPointToPointMessage(0x0000,0x1002,"1002 msg",16);
    291              //P0_5 = 0;
    292              //HalLcdWriteString("P0_5 = 0", HAL_LCD_LINE_3);
    293            }
    294            
    295          #endif
    296          }
   \                     ??SampleApp_HandleKeys_1:
   \   000067   7F02         MOV     R7,#0x2
   \   000069   02....       LJMP    ?BANKED_LEAVE_XDATA
    297          
    298          
    299          /*********************************************************************
    300          * @fn      SampleApp_ProcessEvent
    301          *
    302          * @brief   Generic Application Task event processor.
    303          *
    304          * @param   task_id  - The OSAL assigned task ID.
    305          * @param   events   - Bit map of events to process.
    306          *
    307          * @return  Event flags of all unprocessed events.
    308          */

   \                                 In  segment BANKED_CODE, align 1, keep-with-next
    309          UINT16 SampleApp_ProcessEvent( uint8 task_id, UINT16 events )
   \                     SampleApp_ProcessEvent:
    310          {
   \   000000   74F2         MOV     A,#-0xe
   \   000002   12....       LCALL   ?BANKED_ENTER_XDATA
   \   000005                ; Saved register size: 14
   \   000005                ; Auto size: 107
   \   000005   7495         MOV     A,#-0x6b
   \   000007   12....       LCALL   ?ALLOC_XSTACK8
   \   00000A   89..         MOV     ?V0 + 2,R1
   \   00000C   EA           MOV     A,R2
   \   00000D   FE           MOV     R6,A
   \   00000E   EB           MOV     A,R3
   \   00000F   FF           MOV     R7,A
    311            (void)task_id;  // Intentionally unreferenced parameter
    312            
    313            if ( events & SYS_EVENT_MSG )
   \   000010   EE           MOV     A,R6
   \   000011   5400         ANL     A,#0x0
   \   000013   F8           MOV     R0,A
   \   000014   EF           MOV     A,R7
   \   000015   5480         ANL     A,#0x80
   \   000017   F9           MOV     R1,A
   \   000018   E8           MOV     A,R0
   \   000019   49           ORL     A,R1
   \   00001A   7003         JNZ     $+5
   \   00001C   02....       LJMP    ??SampleApp_ProcessEvent_0 & 0xFFFF
    314            {
    315              afIncomingMSGPacket_t *MSGpkt;
    316              
    317              while ( (MSGpkt = (afIncomingMSGPacket_t *)osal_msg_receive( SampleApp_TaskID )) )
   \                     ??SampleApp_ProcessEvent_1:
   \   00001F                ; Setup parameters for call to function osal_msg_receive
   \   00001F   90....       MOV     DPTR,#SampleApp_TaskID
   \   000022   E0           MOVX    A,@DPTR
   \   000023   F9           MOV     R1,A
   \   000024   12....       LCALL   ??osal_msg_receive?relay
   \   000027   8A..         MOV     ?V0 + 4,R2
   \   000029   8B..         MOV     ?V0 + 5,R3
   \   00002B   A8..         MOV     R0,?V0 + 4
   \   00002D   A9..         MOV     R1,?V0 + 5
   \   00002F   88..         MOV     ?V0 + 0,R0
   \   000031   89..         MOV     ?V0 + 1,R1
   \   000033   E8           MOV     A,R0
   \   000034   49           ORL     A,R1
   \   000035   7003         JNZ     $+5
   \   000037   02....       LJMP    ??SampleApp_ProcessEvent_2 & 0xFFFF
    318              {
    319                switch ( MSGpkt->hdr.event )
   \   00003A   85..82       MOV     DPL,?V0 + 0
   \   00003D   85..83       MOV     DPH,?V0 + 1
   \   000040   E0           MOVX    A,@DPTR
   \   000041   24E6         ADD     A,#-0x1a
   \   000043   6026         JZ      ??SampleApp_ProcessEvent_3
   \   000045   245A         ADD     A,#0x5a
   \   000047   6007         JZ      ??SampleApp_ProcessEvent_4
   \   000049   24EF         ADD     A,#-0x11
   \   00004B   6028         JZ      ??SampleApp_ProcessEvent_5
   \   00004D   02....       LJMP    ??SampleApp_ProcessEvent_6 & 0xFFFF
    320                {
    321                case KEY_CHANGE:
    322                  SampleApp_HandleKeys( ((keyChange_t *)MSGpkt)->state, ((keyChange_t *)MSGpkt)->keys );
   \                     ??SampleApp_ProcessEvent_4:
   \   000050                ; Setup parameters for call to function SampleApp_HandleKeys
   \   000050   85..82       MOV     DPL,?V0 + 0
   \   000053   85..83       MOV     DPH,?V0 + 1
   \   000056   A3           INC     DPTR
   \   000057   A3           INC     DPTR
   \   000058   A3           INC     DPTR
   \   000059   E0           MOVX    A,@DPTR
   \   00005A   FA           MOV     R2,A
   \   00005B   85..82       MOV     DPL,?V0 + 0
   \   00005E   85..83       MOV     DPH,?V0 + 1
   \   000061   A3           INC     DPTR
   \   000062   A3           INC     DPTR
   \   000063   E0           MOVX    A,@DPTR
   \   000064   F9           MOV     R1,A
   \   000065   12....       LCALL   ??SampleApp_HandleKeys?relay
    323                  break;
   \   000068   02....       LJMP    ??SampleApp_ProcessEvent_6 & 0xFFFF
    324                  
    325                case AF_INCOMING_MSG_CMD:
    326                  SampleApp_ProcessMSGCmd( MSGpkt );
   \                     ??SampleApp_ProcessEvent_3:
   \   00006B                ; Setup parameters for call to function SampleApp_ProcessMSGCmd
   \   00006B   AA..         MOV     R2,?V0 + 0
   \   00006D   AB..         MOV     R3,?V0 + 1
   \   00006F   12....       LCALL   ??SampleApp_ProcessMSGCmd?relay
    327                  break;
   \   000072   02....       LJMP    ??SampleApp_ProcessEvent_6 & 0xFFFF
    328                  
    329                case ZDO_STATE_CHANGE:
    330                  {
    331                    
    332                    /////////////////////////////////////
    333          #ifdef ZDO_COORDINATOR
    334                    SampleApp_NwkState = (zdoStatus_t)(MSGpkt->hdr.status);
                                              ^
Warning[Pe188]: enumerated type mixed with another type
   \                     ??SampleApp_ProcessEvent_5:
   \   000075   85..82       MOV     DPL,?V0 + 0
   \   000078   85..83       MOV     DPH,?V0 + 1
   \   00007B   A3           INC     DPTR
   \   00007C   E0           MOVX    A,@DPTR
   \   00007D   90....       MOV     DPTR,#SampleApp_NwkState
   \   000080   F0           MOVX    @DPTR,A
    335          #else
    336                    SampleApp_NwkState = (devStates_t)(MSGpkt->hdr.status);
    337          #endif
    338                    ////////////////////////////////////////// 
    339                    if ( (SampleApp_NwkState == DEV_ROUTER) || (SampleApp_NwkState == DEV_END_DEVICE) )
   \   000081   90....       MOV     DPTR,#SampleApp_NwkState
   \   000084   E0           MOVX    A,@DPTR
   \   000085   6407         XRL     A,#0x7
   \   000087   6008         JZ      ??SampleApp_ProcessEvent_7
   \   000089   90....       MOV     DPTR,#SampleApp_NwkState
   \   00008C   E0           MOVX    A,@DPTR
   \   00008D   6406         XRL     A,#0x6
   \   00008F   7058         JNZ     ??SampleApp_ProcessEvent_8
    340                    {
    341                      // Start sending the periodic message in a regular interval.
    342                      //这个定时器只是为发送周期信息开启的，设备启动初始化后从这里开始
    343                      //触发第一个周期信息的发送，然后周而复始下去
    344                      if(SampleApp_NwkState == DEV_END_DEVICE)//如果本机作为终端设备接入，尝试向协调器发送本机IEEE,但协调器如何判断接收到的数据是终端的IEEE呢？
   \                     ??SampleApp_ProcessEvent_7:
   \   000091   90....       MOV     DPTR,#SampleApp_NwkState
   \   000094   E0           MOVX    A,@DPTR
   \   000095   6406         XRL     A,#0x6
   \   000097   7061         JNZ     ??SampleApp_ProcessEvent_9
    345                      {                                       //考虑数据包前4位设置为识别码，接受方通过识别码判断信息类型
    346                        HalLcdWriteString("get coord", HAL_LCD_LINE_1); //LCD显示
   \   000099                ; Setup parameters for call to function HalLcdWriteString
   \   000099   7901         MOV     R1,#0x1
   \   00009B   7A..         MOV     R2,#`?<Constant "get coord">` & 0xff
   \   00009D   7B..         MOV     R3,#(`?<Constant "get coord">` >> 8) & 0xff
   \   00009F   12....       LCALL   ??HalLcdWriteString?relay
    347                        uint8 IEEEAdr[Z_EXTADDR_LEN*2+1];
    348                        SampleApp_getIEEEAddr(IEEEAdr);
   \   0000A2                ; Setup parameters for call to function SampleApp_getIEEEAddr
   \   0000A2   7432         MOV     A,#0x32
   \   0000A4   12....       LCALL   ?XSTACK_DISP0_8
   \   0000A7   AA82         MOV     R2,DPL
   \   0000A9   AB83         MOV     R3,DPH
   \   0000AB   12....       LCALL   ??SampleApp_getIEEEAddr?relay
    349                        HalLcdWriteString(IEEEAdr, HAL_LCD_LINE_3); //LCD显示
                                                 ^
Warning[Pe167]: argument of type "unsigned char *" is incompatible with
          parameter of type "char *"
   \   0000AE                ; Setup parameters for call to function HalLcdWriteString
   \   0000AE   7903         MOV     R1,#0x3
   \   0000B0   7432         MOV     A,#0x32
   \   0000B2   12....       LCALL   ?XSTACK_DISP0_8
   \   0000B5   AA82         MOV     R2,DPL
   \   0000B7   AB83         MOV     R3,DPH
   \   0000B9   12....       LCALL   ??HalLcdWriteString?relay
    350                        SampleApp_SendPointToPointMessage(0x0000,0x1003,IEEEAdr,16);//0x1003代表终端接入时发送的IEEE事件
   \   0000BC                ; Setup parameters for call to function SampleApp_SendPointToPointMessage
   \   0000BC   75..10       MOV     ?V0 + 4,#0x10
   \   0000BF   75..00       MOV     ?V0 + 5,#0x0
   \   0000C2   78..         MOV     R0,#?V0 + 4
   \   0000C4   12....       LCALL   ?PUSH_XSTACK_I_TWO
   \   0000C7   7434         MOV     A,#0x34
   \   0000C9   12....       LCALL   ?XSTACK_DISP0_8
   \   0000CC   8582..       MOV     ?V0 + 4,DPL
   \   0000CF   8583..       MOV     ?V0 + 5,DPH
   \   0000D2   78..         MOV     R0,#?V0 + 4
   \   0000D4   12....       LCALL   ?PUSH_XSTACK_I_TWO
   \   0000D7   7C03         MOV     R4,#0x3
   \   0000D9   7D10         MOV     R5,#0x10
   \   0000DB   7A00         MOV     R2,#0x0
   \   0000DD   7B00         MOV     R3,#0x0
   \   0000DF   12....       LCALL   ??SampleApp_SendPointToPointMessage?relay
   \   0000E2   7404         MOV     A,#0x4
   \   0000E4   12....       LCALL   ?DEALLOC_XSTACK8
   \   0000E7   8011         SJMP    ??SampleApp_ProcessEvent_9
    351                      } 
    352                    }else if(SampleApp_NwkState == DEV_NWK_ORPHAN)
   \                     ??SampleApp_ProcessEvent_8:
   \   0000E9   90....       MOV     DPTR,#SampleApp_NwkState
   \   0000EC   E0           MOVX    A,@DPTR
   \   0000ED   640A         XRL     A,#0xa
   \   0000EF   7009         JNZ     ??SampleApp_ProcessEvent_9
    353                    {
    354                      HalLcdWriteString("lost coord", HAL_LCD_LINE_1); //LCD显示
   \   0000F1                ; Setup parameters for call to function HalLcdWriteString
   \   0000F1   7901         MOV     R1,#0x1
   \   0000F3   7A..         MOV     R2,#`?<Constant "lost coord">` & 0xff
   \   0000F5   7B..         MOV     R3,#(`?<Constant "lost coord">` >> 8) & 0xff
   \   0000F7   12....       LCALL   ??HalLcdWriteString?relay
    355                    }
    356                    //该处需增加终端离线时触发的事件，尚未查询到如何添加
    357                    osal_start_timerEx( SampleApp_TaskID,
    358                                       SAMPLEAPP_SEND_PERIODIC_MSG_EVT,
    359                                       SAMPLEAPP_SEND_PERIODIC_MSG_TIMEOUT );
   \                     ??SampleApp_ProcessEvent_9:
   \   0000FA                ; Setup parameters for call to function osal_start_timerEx
   \   0000FA   7CB8         MOV     R4,#-0x48
   \   0000FC   7D0B         MOV     R5,#0xb
   \   0000FE   7A01         MOV     R2,#0x1
   \   000100   7B00         MOV     R3,#0x0
   \   000102   90....       MOV     DPTR,#SampleApp_TaskID
   \   000105   E0           MOVX    A,@DPTR
   \   000106   F9           MOV     R1,A
   \   000107   12....       LCALL   ??osal_start_timerEx?relay
   \   00010A   E9           MOV     A,R1
    360                    ///////////////////////////////////////////    
    361          #ifdef ZDO_COORDINATOR
    362                    if(!flag_COOR_CHECK_or_ENDDEV_HEART_BEAT_EVT)
   \   00010B   90....       MOV     DPTR,#flag_COOR_CHECK_or_ENDDEV_HEART_BEAT_EVT
   \   00010E   E0           MOVX    A,@DPTR
   \   00010F   7017         JNZ     ??SampleApp_ProcessEvent_6
    363                    {          
    364                      osal_start_timerEx( SampleApp_TaskID,SAMPLEAPP_COOR_CHECK_DEV_EVT,1000);    //2后检测设备在线状态 
   \   000111                ; Setup parameters for call to function osal_start_timerEx
   \   000111   7CE8         MOV     R4,#-0x18
   \   000113   7D03         MOV     R5,#0x3
   \   000115   7A10         MOV     R2,#0x10
   \   000117   7B00         MOV     R3,#0x0
   \   000119   90....       MOV     DPTR,#SampleApp_TaskID
   \   00011C   E0           MOVX    A,@DPTR
   \   00011D   F9           MOV     R1,A
   \   00011E   12....       LCALL   ??osal_start_timerEx?relay
   \   000121   E9           MOV     A,R1
    365                      flag_COOR_CHECK_or_ENDDEV_HEART_BEAT_EVT = true;
   \   000122   90....       MOV     DPTR,#flag_COOR_CHECK_or_ENDDEV_HEART_BEAT_EVT
   \   000125   7401         MOV     A,#0x1
   \   000127   F0           MOVX    @DPTR,A
    366                    }
    367          #else
    368                    if(!flag_COOR_CHECK_or_ENDDEV_HEART_BEAT_EVT)
    369                    {  
    370                      osal_start_timerEx( SampleApp_TaskID,SAMPLEAPP_ENDDEV_HEART_BEAT_EVT,2000);    //2s后发送一次心跳包到协调器 
    371                      flag_COOR_CHECK_or_ENDDEV_HEART_BEAT_EVT = true;
    372                    }
    373          #endif
    374                    //////////////////////////////////////   
    375                    //        }
    376                    //        else if(SampleApp_NwkState == DEV_ZB_COORD)
    377                    //        {
    378                    //          osal_start_timerEx( SampleApp_TaskID,
    379                    //                             SAMPLEAPP_SEND_PERIODIC_MSG_EVT,
    380                    //                             SAMPLEAPP_SEND_PERIODIC_MSG_TIMEOUT );
    381                    //        }
    382                  }break;
    383                  
    384                default:
    385                  break;
    386                }
    387                
    388                // Release the memory 事件处理完了，释放消息占用的内存
    389                osal_msg_deallocate( (uint8 *)MSGpkt );
   \                     ??SampleApp_ProcessEvent_6:
   \   000128                ; Setup parameters for call to function osal_msg_deallocate
   \   000128   AA..         MOV     R2,?V0 + 0
   \   00012A   AB..         MOV     R3,?V0 + 1
   \   00012C   12....       LCALL   ??osal_msg_deallocate?relay
   \   00012F   E9           MOV     A,R1
    390                // Next - if one is available 指针指向下一个放在缓冲区的待处理的事件，
    391                //返回while ( MSGpkt )重新处理事件，直到缓冲区没有等待处理事件为止
    392                MSGpkt = (afIncomingMSGPacket_t *)osal_msg_receive( SampleApp_TaskID );
   \   000130                ; Setup parameters for call to function osal_msg_receive
   \   000130   90....       MOV     DPTR,#SampleApp_TaskID
   \   000133   E0           MOVX    A,@DPTR
   \   000134   F9           MOV     R1,A
   \   000135   12....       LCALL   ??osal_msg_receive?relay
   \   000138   8A..         MOV     ?V0 + 4,R2
   \   00013A   8B..         MOV     ?V0 + 5,R3
   \   00013C   85....       MOV     ?V0 + 0,?V0 + 4
   \   00013F   85....       MOV     ?V0 + 1,?V0 + 5
   \   000142   02....       LJMP    ??SampleApp_ProcessEvent_1 & 0xFFFF
    393              }
    394              
    395              return ( events ^ SYS_EVENT_MSG );
   \                     ??SampleApp_ProcessEvent_2:
   \   000145   EE           MOV     A,R6
   \   000146   6400         XRL     A,#0x0
   \   000148   FA           MOV     R2,A
   \   000149   EF           MOV     A,R7
   \   00014A   6480         XRL     A,#0x80
   \   00014C   FB           MOV     R3,A
   \   00014D   02....       LJMP    ??SampleApp_ProcessEvent_10 & 0xFFFF
    396            }
    397            
    398          #ifdef ZDO_COORDINATOR
    399            
    400            //定时器时间到
    401            if ( events & SAMPLEAPP_SEND_PERIODIC_MSG_EVT )
   \                     ??SampleApp_ProcessEvent_0:
   \   000150   EE           MOV     A,R6
   \   000151   A2E0         MOV     C,0xE0 /* A   */.0
   \   000153   5075         JNC     ??SampleApp_ProcessEvent_11
    402            {
    403              //osal_start_timerEx( SampleApp_TaskID,SAMPLEAPP_COOR_CHECK_DEV_EVT,2000);    //2后检测设备在线状态 
    404              if(onenet_login_ok==2)
   \   000155   90....       MOV     DPTR,#onenet_login_ok
   \   000158   E0           MOVX    A,@DPTR
   \   000159   6402         XRL     A,#0x2
   \   00015B   7031         JNZ     ??SampleApp_ProcessEvent_12
    405              {
    406                //如果接入onenet成功，启动心跳和发送数据定A器
    407                
    408                P1_1=0;//点亮D2
   \   00015D   C291         CLR     0x90.1
    409                
    410                sprintf(mqtt_message, "Coord Linked");
                               ^
Warning[Pe167]: argument of type "unsigned char *" is incompatible with
          parameter of type "char *"
   \   00015F                ; Setup parameters for call to function sprintf
   \   00015F   7C..         MOV     R4,#`?<Constant "Coord Linked">` & 0xff
   \   000161   7D..         MOV     R5,#(`?<Constant "Coord Linked">` >> 8) & 0xff
   \   000163   7A..         MOV     R2,#mqtt_message & 0xff
   \   000165   7B..         MOV     R3,#(mqtt_message >> 8) & 0xff
   \   000167   12....       LCALL   ??sprintf?relay
    411                osal_start_timerEx( SampleApp_TaskID, SAMPLEAPP_COOR_SEND_MQTT_EVT,1 );
   \   00016A                ; Setup parameters for call to function osal_start_timerEx
   \   00016A   7C01         MOV     R4,#0x1
   \   00016C   7D00         MOV     R5,#0x0
   \   00016E   7A40         MOV     R2,#0x40
   \   000170   7B00         MOV     R3,#0x0
   \   000172   90....       MOV     DPTR,#SampleApp_TaskID
   \   000175   E0           MOVX    A,@DPTR
   \   000176   F9           MOV     R1,A
   \   000177   12....       LCALL   ??osal_start_timerEx?relay
   \   00017A   E9           MOV     A,R1
    412                //Response2mqtt("Coord Linked","201");//通知服务器，协调器已连接
    413                // 启动心跳定时器，15秒一次
    414                osal_start_timerEx( SampleApp_TaskID, SAMPLEAPP_ONENET_HEART_BEAT_EVT,15000 );
   \   00017B                ; Setup parameters for call to function osal_start_timerEx
   \   00017B   7C98         MOV     R4,#-0x68
   \   00017D   7D3A         MOV     R5,#0x3a
   \   00017F   7A02         MOV     R2,#0x2
   \   000181   7B00         MOV     R3,#0x0
   \   000183   90....       MOV     DPTR,#SampleApp_TaskID
   \   000186   E0           MOVX    A,@DPTR
   \   000187   F9           MOV     R1,A
   \   000188   12....       LCALL   ??osal_start_timerEx?relay
   \   00018B   E9           MOV     A,R1
   \   00018C   8031         SJMP    ??SampleApp_ProcessEvent_13
    415                
    416                // 启动发送数据定时器，5秒一次
    417                //osal_start_timerEx( SampleApp_TaskID, SAMPLEAPP_ONENET_SEND_DATA_EVT,5000 );
    418              }
    419              else
    420              {
    421                onenet_login_ok=1;//onenet注册成功 0:未注册，1：注册中　2：注册成功
   \                     ??SampleApp_ProcessEvent_12:
   \   00018E   90....       MOV     DPTR,#onenet_login_ok
   \   000191   7401         MOV     A,#0x1
   \   000193   F0           MOVX    @DPTR,A
    422                SampleApp_RxLen=0;
   \   000194   90....       MOV     DPTR,#SampleApp_RxLen
   \   000197   7400         MOV     A,#0x0
   \   000199   F0           MOVX    @DPTR,A
   \   00019A   A3           INC     DPTR
   \   00019B   7400         MOV     A,#0x0
   \   00019D   F0           MOVX    @DPTR,A
    423                
    424                //如果没有接入onenet成功，重新发起接入
    425                OneNet_DevLink();//接入onenet服务器
   \   00019E                ; Setup parameters for call to function OneNet_DevLink
   \   00019E   12....       LCALL   ??OneNet_DevLink?relay
    426                
    427                //LED2闪，表示正在接入onenet
    428                HalLedBlink (HAL_LED_2, 5, 50, 500);
   \   0001A1                ; Setup parameters for call to function HalLedBlink
   \   0001A1   7CF4         MOV     R4,#-0xc
   \   0001A3   7D01         MOV     R5,#0x1
   \   0001A5   7B32         MOV     R3,#0x32
   \   0001A7   7A05         MOV     R2,#0x5
   \   0001A9   7902         MOV     R1,#0x2
   \   0001AB   12....       LCALL   ??HalLedBlink?relay
    429                
    430                // 每5秒尝试接入一次
    431                osal_start_timerEx( SampleApp_TaskID, SAMPLEAPP_SEND_PERIODIC_MSG_EVT,5000 );
   \   0001AE                ; Setup parameters for call to function osal_start_timerEx
   \   0001AE   7C88         MOV     R4,#-0x78
   \   0001B0   7D13         MOV     R5,#0x13
   \   0001B2   7A01         MOV     R2,#0x1
   \   0001B4   7B00         MOV     R3,#0x0
   \   0001B6   90....       MOV     DPTR,#SampleApp_TaskID
   \   0001B9   E0           MOVX    A,@DPTR
   \   0001BA   F9           MOV     R1,A
   \   0001BB   12....       LCALL   ??osal_start_timerEx?relay
   \   0001BE   E9           MOV     A,R1
    432              }
    433              
    434              
    435              // return unprocessed events
    436              return (events ^ SAMPLEAPP_SEND_PERIODIC_MSG_EVT);
   \                     ??SampleApp_ProcessEvent_13:
   \   0001BF   EE           MOV     A,R6
   \   0001C0   6401         XRL     A,#0x1
   \   0001C2   FA           MOV     R2,A
   \   0001C3   EF           MOV     A,R7
   \   0001C4   6400         XRL     A,#0x0
   \   0001C6   FB           MOV     R3,A
   \   0001C7   02....       LJMP    ??SampleApp_ProcessEvent_10 & 0xFFFF
    437            }
    438            
    439            
    440            //心跳定时器时间到
    441            if ( events & SAMPLEAPP_ONENET_HEART_BEAT_EVT )
   \                     ??SampleApp_ProcessEvent_11:
   \   0001CA   EE           MOV     A,R6
   \   0001CB   5402         ANL     A,#0x2
   \   0001CD   6027         JZ      ??SampleApp_ProcessEvent_14
    442            {
    443              if(onenet_login_ok==2)
   \   0001CF   90....       MOV     DPTR,#onenet_login_ok
   \   0001D2   E0           MOVX    A,@DPTR
   \   0001D3   6402         XRL     A,#0x2
   \   0001D5   7003         JNZ     ??SampleApp_ProcessEvent_15
    444              {
    445                //发送心跳
    446                onenet_mqtt_send_heart();
   \   0001D7                ; Setup parameters for call to function onenet_mqtt_send_heart
   \   0001D7   12....       LCALL   ??onenet_mqtt_send_heart?relay
    447          
    448              }
    449              
    450              // 启动心跳定时器，15秒一次
    451              osal_start_timerEx( SampleApp_TaskID, SAMPLEAPP_ONENET_HEART_BEAT_EVT,15000 );
   \                     ??SampleApp_ProcessEvent_15:
   \   0001DA                ; Setup parameters for call to function osal_start_timerEx
   \   0001DA   7C98         MOV     R4,#-0x68
   \   0001DC   7D3A         MOV     R5,#0x3a
   \   0001DE   7A02         MOV     R2,#0x2
   \   0001E0   7B00         MOV     R3,#0x0
   \   0001E2   90....       MOV     DPTR,#SampleApp_TaskID
   \   0001E5   E0           MOVX    A,@DPTR
   \   0001E6   F9           MOV     R1,A
   \   0001E7   12....       LCALL   ??osal_start_timerEx?relay
   \   0001EA   E9           MOV     A,R1
    452              
    453              
    454              // return unprocessed events
    455              return (events ^ SAMPLEAPP_ONENET_HEART_BEAT_EVT);
   \   0001EB   EE           MOV     A,R6
   \   0001EC   6402         XRL     A,#0x2
   \   0001EE   FA           MOV     R2,A
   \   0001EF   EF           MOV     A,R7
   \   0001F0   6400         XRL     A,#0x0
   \   0001F2   FB           MOV     R3,A
   \   0001F3   02....       LJMP    ??SampleApp_ProcessEvent_10 & 0xFFFF
    456            }
    457            
    458            
    459            //发送数据定时器时间到
    460            if ( events & SAMPLEAPP_ONENET_SEND_DATA_EVT )
   \                     ??SampleApp_ProcessEvent_14:
   \   0001F6   EE           MOV     A,R6
   \   0001F7   5404         ANL     A,#0x4
   \   0001F9   600B         JZ      ??SampleApp_ProcessEvent_16
    461            {
    462              if(onenet_login_ok==2)
    463              {
    464                //发送温湿度数据到onenet
    465                //    OneNet_SendData(end_temp, end_hum);
    466                
    467          //      sprintf(mqtt_message,"{\"flow\":201,\
    468          //        \"msg\":{\
    469          //          \"dev1\":%d,\
    470          //            \"dev2\":%d,\
    471          //              \"dev3\":%d,\
    472          //    }}",
    473          //    devicesOnlineStatus[0],
    474          //    devicesOnlineStatus[1],
    475          //    devicesOnlineStatus[2]
    476          //      );      //该位置数据包应更改为终端数据汇总，汇总后综合发送至mqtt。
    477                
    478                //发布主题
    479                //mqtt_publish_topic(topics_post, mqtt_message);
    480                
    481                //  OneNet_publish_topic();
    482              }
    483              
    484              // 启动发送数据定时器，5秒一次发送终端数据汇总
    485              //osal_start_timerEx( SampleApp_TaskID, SAMPLEAPP_ONENET_SEND_DATA_EVT,5000 );
    486              
    487              
    488              // return unprocessed events
    489              return (events ^ SAMPLEAPP_ONENET_SEND_DATA_EVT);
   \   0001FB   EE           MOV     A,R6
   \   0001FC   6404         XRL     A,#0x4
   \   0001FE   FA           MOV     R2,A
   \   0001FF   EF           MOV     A,R7
   \   000200   6400         XRL     A,#0x0
   \   000202   FB           MOV     R3,A
   \   000203   02....       LJMP    ??SampleApp_ProcessEvent_10 & 0xFFFF
    490            }
    491            if ( events & SAMPLEAPP_COOR_CHECK_DEV_EVT )//协调器定时检查设备在线状态
   \                     ??SampleApp_ProcessEvent_16:
   \   000206   EE           MOV     A,R6
   \   000207   5410         ANL     A,#0x10
   \   000209   7003         JNZ     $+5
   \   00020B   02....       LJMP    ??SampleApp_ProcessEvent_17 & 0xFFFF
    492            {
    493              uint8 buff[40]={0};
                           ^
Warning[Pe177]: variable "buff" was declared but never referenced
   \   00020E   90....       MOV     DPTR,#`?<Constant {0}>`
   \   000211   C082         PUSH    DPL
   \   000213   C083         PUSH    DPH
   \   000215   7443         MOV     A,#0x43
   \   000217   12....       LCALL   ?XSTACK_DISP0_8
   \   00021A   AC82         MOV     R4,DPL
   \   00021C   AD83         MOV     R5,DPH
   \   00021E   D083         POP     DPH
   \   000220   D082         POP     DPL
   \   000222   7428         MOV     A,#0x28
   \   000224   12....       LCALL   ?MOVE_LONG8_XDATA_XDATA
    494              
    495              for(int i=0;i<sizeof(devicesOnline)/sizeof(devicesOnline[0]);i++)
   \   000227   7800         MOV     R0,#0x0
   \   000229   7900         MOV     R1,#0x0
   \                     ??SampleApp_ProcessEvent_18:
   \   00022B   C3           CLR     C
   \   00022C   E8           MOV     A,R0
   \   00022D   9404         SUBB    A,#0x4
   \   00022F   E9           MOV     A,R1
   \   000230   9400         SUBB    A,#0x0
   \   000232   4003         JC      $+5
   \   000234   02....       LJMP    ??SampleApp_ProcessEvent_19 & 0xFFFF
    496              {
    497                devicesOnlineStatus[i] = devicesOnline[i];
   \   000237   E8           MOV     A,R0
   \   000238   FA           MOV     R2,A
   \   000239   E9           MOV     A,R1
   \   00023A   FB           MOV     R3,A
   \   00023B   EA           MOV     A,R2
   \   00023C   75F002       MOV     B,#0x2
   \   00023F   A4           MUL     AB
   \   000240   CA           XCH     A,R2
   \   000241   ACF0         MOV     R4,B
   \   000243   75F000       MOV     B,#0x0
   \   000246   A4           MUL     AB
   \   000247   2C           ADD     A,R4
   \   000248   FC           MOV     R4,A
   \   000249   75F002       MOV     B,#0x2
   \   00024C   EB           MOV     A,R3
   \   00024D   A4           MUL     AB
   \   00024E   2C           ADD     A,R4
   \   00024F   FB           MOV     R3,A
   \   000250   74..         MOV     A,#devicesOnline & 0xff
   \   000252   2A           ADD     A,R2
   \   000253   F582         MOV     DPL,A
   \   000255   74..         MOV     A,#(devicesOnline >> 8) & 0xff
   \   000257   3B           ADDC    A,R3
   \   000258   F583         MOV     DPH,A
   \   00025A   E0           MOVX    A,@DPTR
   \   00025B   FC           MOV     R4,A
   \   00025C   A3           INC     DPTR
   \   00025D   E0           MOVX    A,@DPTR
   \   00025E   FD           MOV     R5,A
   \   00025F   E8           MOV     A,R0
   \   000260   FA           MOV     R2,A
   \   000261   E9           MOV     A,R1
   \   000262   FB           MOV     R3,A
   \   000263   EA           MOV     A,R2
   \   000264   75F002       MOV     B,#0x2
   \   000267   A4           MUL     AB
   \   000268   CA           XCH     A,R2
   \   000269   85F0..       MOV     ?V0 + 0,B
   \   00026C   75F000       MOV     B,#0x0
   \   00026F   A4           MUL     AB
   \   000270   25..         ADD     A,?V0 + 0
   \   000272   F5..         MOV     ?V0 + 0,A
   \   000274   75F002       MOV     B,#0x2
   \   000277   EB           MOV     A,R3
   \   000278   A4           MUL     AB
   \   000279   25..         ADD     A,?V0 + 0
   \   00027B   FB           MOV     R3,A
   \   00027C   74..         MOV     A,#devicesOnlineStatus & 0xff
   \   00027E   2A           ADD     A,R2
   \   00027F   F582         MOV     DPL,A
   \   000281   74..         MOV     A,#(devicesOnlineStatus >> 8) & 0xff
   \   000283   3B           ADDC    A,R3
   \   000284   F583         MOV     DPH,A
   \   000286   EC           MOV     A,R4
   \   000287   F0           MOVX    @DPTR,A
   \   000288   A3           INC     DPTR
   \   000289   ED           MOV     A,R5
   \   00028A   F0           MOVX    @DPTR,A
    498                devicesOnline[i]=0;
   \   00028B   E8           MOV     A,R0
   \   00028C   FA           MOV     R2,A
   \   00028D   E9           MOV     A,R1
   \   00028E   FB           MOV     R3,A
   \   00028F   EA           MOV     A,R2
   \   000290   75F002       MOV     B,#0x2
   \   000293   A4           MUL     AB
   \   000294   CA           XCH     A,R2
   \   000295   ACF0         MOV     R4,B
   \   000297   75F000       MOV     B,#0x0
   \   00029A   A4           MUL     AB
   \   00029B   2C           ADD     A,R4
   \   00029C   FC           MOV     R4,A
   \   00029D   75F002       MOV     B,#0x2
   \   0002A0   EB           MOV     A,R3
   \   0002A1   A4           MUL     AB
   \   0002A2   2C           ADD     A,R4
   \   0002A3   FB           MOV     R3,A
   \   0002A4   74..         MOV     A,#devicesOnline & 0xff
   \   0002A6   2A           ADD     A,R2
   \   0002A7   F582         MOV     DPL,A
   \   0002A9   74..         MOV     A,#(devicesOnline >> 8) & 0xff
   \   0002AB   3B           ADDC    A,R3
   \   0002AC   F583         MOV     DPH,A
   \   0002AE   7400         MOV     A,#0x0
   \   0002B0   F0           MOVX    @DPTR,A
   \   0002B1   A3           INC     DPTR
   \   0002B2   7400         MOV     A,#0x0
   \   0002B4   F0           MOVX    @DPTR,A
    499                //printf("device%d %d\n",i,devicesOnlineStatus[i]);
    500                //HalLcdWriteString(buff, i+1);
    501              }
   \   0002B5   E8           MOV     A,R0
   \   0002B6   2401         ADD     A,#0x1
   \   0002B8   F8           MOV     R0,A
   \   0002B9   E9           MOV     A,R1
   \   0002BA   3400         ADDC    A,#0x0
   \   0002BC   F9           MOV     R1,A
   \   0002BD   02....       LJMP    ??SampleApp_ProcessEvent_18 & 0xFFFF
    502              
    503              osal_start_timerEx( SampleApp_TaskID, SAMPLEAPP_COOR_CHECK_DEV_EVT,5000 );
   \                     ??SampleApp_ProcessEvent_19:
   \   0002C0                ; Setup parameters for call to function osal_start_timerEx
   \   0002C0   7C88         MOV     R4,#-0x78
   \   0002C2   7D13         MOV     R5,#0x13
   \   0002C4   7A10         MOV     R2,#0x10
   \   0002C6   7B00         MOV     R3,#0x0
   \   0002C8   90....       MOV     DPTR,#SampleApp_TaskID
   \   0002CB   E0           MOVX    A,@DPTR
   \   0002CC   F9           MOV     R1,A
   \   0002CD   12....       LCALL   ??osal_start_timerEx?relay
   \   0002D0   E9           MOV     A,R1
    504              return (events ^ SAMPLEAPP_COOR_CHECK_DEV_EVT);
   \   0002D1   EE           MOV     A,R6
   \   0002D2   6410         XRL     A,#0x10
   \   0002D4   FA           MOV     R2,A
   \   0002D5   EF           MOV     A,R7
   \   0002D6   6400         XRL     A,#0x0
   \   0002D8   FB           MOV     R3,A
   \   0002D9   02....       LJMP    ??SampleApp_ProcessEvent_10 & 0xFFFF
    505            }
    506            
    507            if ( events & SAMPLEAPP_COOR_CHECK_MQTT_EVT )//协调器执行mqtt处理事件
   \                     ??SampleApp_ProcessEvent_17:
   \   0002DC   EE           MOV     A,R6
   \   0002DD   5420         ANL     A,#0x20
   \   0002DF   7003         JNZ     $+5
   \   0002E1   02....       LJMP    ??SampleApp_ProcessEvent_20 & 0xFFFF
    508            {
    509              uint8 pureRecMsg[50] = {0};
   \   0002E4   90....       MOV     DPTR,#`?<Constant {0}>_1`
   \   0002E7   C082         PUSH    DPL
   \   0002E9   C083         PUSH    DPH
   \   0002EB   85..82       MOV     DPL,?XSP + 0
   \   0002EE   85..83       MOV     DPH,?XSP + 1
   \   0002F1   AC82         MOV     R4,DPL
   \   0002F3   AD83         MOV     R5,DPH
   \   0002F5   D083         POP     DPH
   \   0002F7   D082         POP     DPL
   \   0002F9   7432         MOV     A,#0x32
   \   0002FB   12....       LCALL   ?MOVE_LONG8_XDATA_XDATA
    510              if(MqttRecMsg[0]=='\0')//假如数据字符为dev1,switch2,1
   \   0002FE   90....       MOV     DPTR,#MqttRecMsg
   \   000301   E0           MOVX    A,@DPTR
   \   000302   7003         JNZ     $+5
   \   000304   02....       LJMP    ??SampleApp_ProcessEvent_21 & 0xFFFF
    511              {}
    512              //else if(strstr(MqttRecMsg,"dev2,")!=NULL)
    513              else{
    514                printf("MqttRecMsg:%s\n",MqttRecMsg);
   \   000307                ; Setup parameters for call to function printf
   \   000307   75....       MOV     ?V0 + 0,#MqttRecMsg & 0xff
   \   00030A   75....       MOV     ?V0 + 1,#(MqttRecMsg >> 8) & 0xff
   \   00030D   78..         MOV     R0,#?V0 + 0
   \   00030F   12....       LCALL   ?PUSH_XSTACK_I_TWO
   \   000312   7A..         MOV     R2,#`?<Constant "MqttRecMsg:%s\\n">` & 0xff
   \   000314   7B..         MOV     R3,#(`?<Constant "MqttRecMsg:%s\\n">` >> 8) & 0xff
   \   000316   12....       LCALL   ??printf?relay
   \   000319   7402         MOV     A,#0x2
   \   00031B   12....       LCALL   ?DEALLOC_XSTACK8
    515                if(strstr(MqttRecMsg,"\"}")!=NULL)
                                 ^
Warning[Pe167]: argument of type "unsigned char *" is incompatible with
          parameter of type "char const *"
   \   00031E                ; Setup parameters for call to function strstr
   \   00031E   7C..         MOV     R4,#`?<Constant "\\"}">` & 0xff
   \   000320   7D..         MOV     R5,#(`?<Constant "\\"}">` >> 8) & 0xff
   \   000322   7A..         MOV     R2,#MqttRecMsg & 0xff
   \   000324   7B..         MOV     R3,#(MqttRecMsg >> 8) & 0xff
   \   000326   12....       LCALL   ??strstr?relay
   \   000329   8A..         MOV     ?V0 + 0,R2
   \   00032B   8B..         MOV     ?V0 + 1,R3
   \   00032D   E5..         MOV     A,?V0 + 0
   \   00032F   45..         ORL     A,?V0 + 1
   \   000331   606F         JZ      ??SampleApp_ProcessEvent_22
    516                {
    517                  memcpy(pureRecMsg,strstr(MqttRecMsg,"\"msg\":\"")+7,strstr(MqttRecMsg,"\"}")-(strstr(MqttRecMsg,"\"msg\":\"")+7));
                                                  ^
Warning[Pe167]: argument of type "unsigned char *" is incompatible with
          parameter of type "char const *"

          memcpy(pureRecMsg,strstr(MqttRecMsg,"\"msg\":\"")+7,strstr(MqttRecMsg,"\"}")-(strstr(MqttRecMsg,"\"msg\":\"")+7));
                                                                     ^
"e:\imtht\Documents\Code\Zigbee\ZStack-2.5.1a\Projects\zstack\Samples\SampleApp\Source\SampleApp.c",517  Warning[Pe167]: 
          argument of type "unsigned char *" is incompatible with parameter of
          type "char const *"

          memcpy(pureRecMsg,strstr(MqttRecMsg,"\"msg\":\"")+7,strstr(MqttRecMsg,"\"}")-(strstr(MqttRecMsg,"\"msg\":\"")+7));
                                                                                               ^
"e:\imtht\Documents\Code\Zigbee\ZStack-2.5.1a\Projects\zstack\Samples\SampleApp\Source\SampleApp.c",517  Warning[Pe167]: 
          argument of type "unsigned char *" is incompatible with parameter of
          type "char const *"
   \   000333                ; Setup parameters for call to function strstr
   \   000333   7C..         MOV     R4,#`?<Constant "\\"}">` & 0xff
   \   000335   7D..         MOV     R5,#(`?<Constant "\\"}">` >> 8) & 0xff
   \   000337   7A..         MOV     R2,#MqttRecMsg & 0xff
   \   000339   7B..         MOV     R3,#(MqttRecMsg >> 8) & 0xff
   \   00033B   12....       LCALL   ??strstr?relay
   \   00033E   8A..         MOV     ?V0 + 4,R2
   \   000340   8B..         MOV     ?V0 + 5,R3
   \   000342   85....       MOV     ?V0 + 0,?V0 + 4
   \   000345   85....       MOV     ?V0 + 1,?V0 + 5
   \   000348                ; Setup parameters for call to function strstr
   \   000348   7C..         MOV     R4,#`?<Constant "\\"msg\\":\\"">` & 0xff
   \   00034A   7D..         MOV     R5,#(`?<Constant "\\"msg\\":\\"">` >> 8) & 0xff
   \   00034C   7A..         MOV     R2,#MqttRecMsg & 0xff
   \   00034E   7B..         MOV     R3,#(MqttRecMsg >> 8) & 0xff
   \   000350   12....       LCALL   ??strstr?relay
   \   000353   8A..         MOV     ?V0 + 4,R2
   \   000355   8B..         MOV     ?V0 + 5,R3
   \   000357   A8..         MOV     R0,?V0 + 4
   \   000359   A9..         MOV     R1,?V0 + 5
   \   00035B                ; Setup parameters for call to function memcpy
   \   00035B   E5..         MOV     A,?V0 + 4
   \   00035D   2407         ADD     A,#0x7
   \   00035F   F8           MOV     R0,A
   \   000360   E5..         MOV     A,?V0 + 5
   \   000362   3400         ADDC    A,#0x0
   \   000364   F9           MOV     R1,A
   \   000365   E5..         MOV     A,?V0 + 0
   \   000367   C3           CLR     C
   \   000368   98           SUBB    A,R0
   \   000369   F5..         MOV     ?V0 + 0,A
   \   00036B   E5..         MOV     A,?V0 + 1
   \   00036D   99           SUBB    A,R1
   \   00036E   F5..         MOV     ?V0 + 1,A
   \   000370   78..         MOV     R0,#?V0 + 0
   \   000372   12....       LCALL   ?PUSH_XSTACK_I_TWO
   \   000375                ; Setup parameters for call to function strstr
   \   000375   7C..         MOV     R4,#`?<Constant "\\"msg\\":\\"">` & 0xff
   \   000377   7D..         MOV     R5,#(`?<Constant "\\"msg\\":\\"">` >> 8) & 0xff
   \   000379   7A..         MOV     R2,#MqttRecMsg & 0xff
   \   00037B   7B..         MOV     R3,#(MqttRecMsg >> 8) & 0xff
   \   00037D   12....       LCALL   ??strstr?relay
   \   000380   8A..         MOV     ?V0 + 0,R2
   \   000382   8B..         MOV     ?V0 + 1,R3
   \   000384   E5..         MOV     A,?V0 + 0
   \   000386   2407         ADD     A,#0x7
   \   000388   FC           MOV     R4,A
   \   000389   E5..         MOV     A,?V0 + 1
   \   00038B   3400         ADDC    A,#0x0
   \   00038D   FD           MOV     R5,A
   \   00038E   7402         MOV     A,#0x2
   \   000390   12....       LCALL   ?XSTACK_DISP0_8
   \   000393   AA82         MOV     R2,DPL
   \   000395   AB83         MOV     R3,DPH
   \   000397   12....       LCALL   ??memcpy?relay
   \   00039A   7402         MOV     A,#0x2
   \   00039C   12....       LCALL   ?DEALLOC_XSTACK8
   \   00039F   02....       LJMP    ??SampleApp_ProcessEvent_21 & 0xFFFF
    518                }else if(strstr(MqttRecMsg,"\",\"flow\"")!=NULL)
                                       ^
Warning[Pe167]: argument of type "unsigned char *" is incompatible with
          parameter of type "char const *"
   \                     ??SampleApp_ProcessEvent_22:
   \   0003A2                ; Setup parameters for call to function strstr
   \   0003A2   7C..         MOV     R4,#`?<Constant "\\",\\"flow\\"">` & 0xff
   \   0003A4   7D..         MOV     R5,#(`?<Constant "\\",\\"flow\\"">` >> 8) & 0xff
   \   0003A6   7A..         MOV     R2,#MqttRecMsg & 0xff
   \   0003A8   7B..         MOV     R3,#(MqttRecMsg >> 8) & 0xff
   \   0003AA   12....       LCALL   ??strstr?relay
   \   0003AD   8A..         MOV     ?V0 + 0,R2
   \   0003AF   8B..         MOV     ?V0 + 1,R3
   \   0003B1   E5..         MOV     A,?V0 + 0
   \   0003B3   45..         ORL     A,?V0 + 1
   \   0003B5   606C         JZ      ??SampleApp_ProcessEvent_21
    519                {
    520                  memcpy(pureRecMsg,strstr(MqttRecMsg,"\"msg\":\"")+7,strstr(MqttRecMsg,"\",\"flow\"")-(strstr(MqttRecMsg,"\"msg\":\"")+7));
                                                  ^
Warning[Pe167]: argument of type "unsigned char *" is incompatible with
          parameter of type "char const *"

          memcpy(pureRecMsg,strstr(MqttRecMsg,"\"msg\":\"")+7,strstr(MqttRecMsg,"\",\"flow\"")-(strstr(MqttRecMsg,"\"msg\":\"")+7));
                                                                     ^
"e:\imtht\Documents\Code\Zigbee\ZStack-2.5.1a\Projects\zstack\Samples\SampleApp\Source\SampleApp.c",520  Warning[Pe167]: 
          argument of type "unsigned char *" is incompatible with parameter of
          type "char const *"

          memcpy(pureRecMsg,strstr(MqttRecMsg,"\"msg\":\"")+7,strstr(MqttRecMsg,"\",\"flow\"")-(strstr(MqttRecMsg,"\"msg\":\"")+7));
                                                                                                       ^
"e:\imtht\Documents\Code\Zigbee\ZStack-2.5.1a\Projects\zstack\Samples\SampleApp\Source\SampleApp.c",520  Warning[Pe167]: 
          argument of type "unsigned char *" is incompatible with parameter of
          type "char const *"
   \   0003B7                ; Setup parameters for call to function strstr
   \   0003B7   7C..         MOV     R4,#`?<Constant "\\",\\"flow\\"">` & 0xff
   \   0003B9   7D..         MOV     R5,#(`?<Constant "\\",\\"flow\\"">` >> 8) & 0xff
   \   0003BB   7A..         MOV     R2,#MqttRecMsg & 0xff
   \   0003BD   7B..         MOV     R3,#(MqttRecMsg >> 8) & 0xff
   \   0003BF   12....       LCALL   ??strstr?relay
   \   0003C2   8A..         MOV     ?V0 + 4,R2
   \   0003C4   8B..         MOV     ?V0 + 5,R3
   \   0003C6   85....       MOV     ?V0 + 0,?V0 + 4
   \   0003C9   85....       MOV     ?V0 + 1,?V0 + 5
   \   0003CC                ; Setup parameters for call to function strstr
   \   0003CC   7C..         MOV     R4,#`?<Constant "\\"msg\\":\\"">` & 0xff
   \   0003CE   7D..         MOV     R5,#(`?<Constant "\\"msg\\":\\"">` >> 8) & 0xff
   \   0003D0   7A..         MOV     R2,#MqttRecMsg & 0xff
   \   0003D2   7B..         MOV     R3,#(MqttRecMsg >> 8) & 0xff
   \   0003D4   12....       LCALL   ??strstr?relay
   \   0003D7   8A..         MOV     ?V0 + 4,R2
   \   0003D9   8B..         MOV     ?V0 + 5,R3
   \   0003DB   A8..         MOV     R0,?V0 + 4
   \   0003DD   A9..         MOV     R1,?V0 + 5
   \   0003DF                ; Setup parameters for call to function memcpy
   \   0003DF   E5..         MOV     A,?V0 + 4
   \   0003E1   2407         ADD     A,#0x7
   \   0003E3   F8           MOV     R0,A
   \   0003E4   E5..         MOV     A,?V0 + 5
   \   0003E6   3400         ADDC    A,#0x0
   \   0003E8   F9           MOV     R1,A
   \   0003E9   E5..         MOV     A,?V0 + 0
   \   0003EB   C3           CLR     C
   \   0003EC   98           SUBB    A,R0
   \   0003ED   F5..         MOV     ?V0 + 0,A
   \   0003EF   E5..         MOV     A,?V0 + 1
   \   0003F1   99           SUBB    A,R1
   \   0003F2   F5..         MOV     ?V0 + 1,A
   \   0003F4   78..         MOV     R0,#?V0 + 0
   \   0003F6   12....       LCALL   ?PUSH_XSTACK_I_TWO
   \   0003F9                ; Setup parameters for call to function strstr
   \   0003F9   7C..         MOV     R4,#`?<Constant "\\"msg\\":\\"">` & 0xff
   \   0003FB   7D..         MOV     R5,#(`?<Constant "\\"msg\\":\\"">` >> 8) & 0xff
   \   0003FD   7A..         MOV     R2,#MqttRecMsg & 0xff
   \   0003FF   7B..         MOV     R3,#(MqttRecMsg >> 8) & 0xff
   \   000401   12....       LCALL   ??strstr?relay
   \   000404   8A..         MOV     ?V0 + 0,R2
   \   000406   8B..         MOV     ?V0 + 1,R3
   \   000408   E5..         MOV     A,?V0 + 0
   \   00040A   2407         ADD     A,#0x7
   \   00040C   FC           MOV     R4,A
   \   00040D   E5..         MOV     A,?V0 + 1
   \   00040F   3400         ADDC    A,#0x0
   \   000411   FD           MOV     R5,A
   \   000412   7402         MOV     A,#0x2
   \   000414   12....       LCALL   ?XSTACK_DISP0_8
   \   000417   AA82         MOV     R2,DPL
   \   000419   AB83         MOV     R3,DPH
   \   00041B   12....       LCALL   ??memcpy?relay
   \   00041E   7402         MOV     A,#0x2
   \   000420   12....       LCALL   ?DEALLOC_XSTACK8
    521                }
    522              }
    523              if(strcmp(pureRecMsg,"0")==0)//协调器收到android心跳包,纯消息体为0，收到即反馈空消息至android
                               ^
Warning[Pe167]: argument of type "unsigned char *" is incompatible with
          parameter of type "char const *"
   \                     ??SampleApp_ProcessEvent_21:
   \   000423                ; Setup parameters for call to function strcmp
   \   000423   7C..         MOV     R4,#`?<Constant "0">` & 0xff
   \   000425   7D..         MOV     R5,#(`?<Constant "0">` >> 8) & 0xff
   \   000427   85..82       MOV     DPL,?XSP + 0
   \   00042A   85..83       MOV     DPH,?XSP + 1
   \   00042D   AA82         MOV     R2,DPL
   \   00042F   AB83         MOV     R3,DPH
   \   000431   12....       LCALL   ??strcmp?relay
   \   000434   8A..         MOV     ?V0 + 0,R2
   \   000436   8B..         MOV     ?V0 + 1,R3
   \   000438   E5..         MOV     A,?V0 + 0
   \   00043A   45..         ORL     A,?V0 + 1
   \   00043C   7035         JNZ     ??SampleApp_ProcessEvent_23
    524              {
    525                sprintf(mqtt_message, "%s",pureRecMsg);
                               ^
Warning[Pe167]: argument of type "unsigned char *" is incompatible with
          parameter of type "char *"
   \   00043E                ; Setup parameters for call to function sprintf
   \   00043E   85..82       MOV     DPL,?XSP + 0
   \   000441   85..83       MOV     DPH,?XSP + 1
   \   000444   8582..       MOV     ?V0 + 0,DPL
   \   000447   8583..       MOV     ?V0 + 1,DPH
   \   00044A   78..         MOV     R0,#?V0 + 0
   \   00044C   12....       LCALL   ?PUSH_XSTACK_I_TWO
   \   00044F   7C..         MOV     R4,#`?<Constant "%s">` & 0xff
   \   000451   7D..         MOV     R5,#(`?<Constant "%s">` >> 8) & 0xff
   \   000453   7A..         MOV     R2,#mqtt_message & 0xff
   \   000455   7B..         MOV     R3,#(mqtt_message >> 8) & 0xff
   \   000457   12....       LCALL   ??sprintf?relay
   \   00045A   7402         MOV     A,#0x2
   \   00045C   12....       LCALL   ?DEALLOC_XSTACK8
    526                osal_start_timerEx( SampleApp_TaskID, SAMPLEAPP_COOR_SEND_MQTT_EVT,1 );
   \   00045F                ; Setup parameters for call to function osal_start_timerEx
   \   00045F   7C01         MOV     R4,#0x1
   \   000461   7D00         MOV     R5,#0x0
   \   000463   7A40         MOV     R2,#0x40
   \   000465   7B00         MOV     R3,#0x0
   \   000467   90....       MOV     DPTR,#SampleApp_TaskID
   \   00046A   E0           MOVX    A,@DPTR
   \   00046B   F9           MOV     R1,A
   \   00046C   12....       LCALL   ??osal_start_timerEx?relay
   \   00046F   E9           MOV     A,R1
   \   000470   02....       LJMP    ??SampleApp_ProcessEvent_24 & 0xFFFF
    527                //Response2mqtt(pureRecMsg,"201");
    528              }else if(DevicesShortAddr[0]!=-1 && strstr(pureRecMsg,"dev0,")!=NULL)
                                                                ^
Warning[Pe167]: argument of type "unsigned char *" is incompatible with
          parameter of type "char const *"
   \                     ??SampleApp_ProcessEvent_23:
   \   000473   90....       MOV     DPTR,#DevicesShortAddr
   \   000476   E0           MOVX    A,@DPTR
   \   000477   64FF         XRL     A,#0xff
   \   000479   7004         JNZ     ??SampleApp_ProcessEvent_25
   \   00047B   A3           INC     DPTR
   \   00047C   E0           MOVX    A,@DPTR
   \   00047D   64FF         XRL     A,#0xff
   \                     ??SampleApp_ProcessEvent_25:
   \   00047F   605E         JZ      ??SampleApp_ProcessEvent_26
   \   000481                ; Setup parameters for call to function strstr
   \   000481   7C..         MOV     R4,#`?<Constant "dev0,">` & 0xff
   \   000483   7D..         MOV     R5,#(`?<Constant "dev0,">` >> 8) & 0xff
   \   000485   85..82       MOV     DPL,?XSP + 0
   \   000488   85..83       MOV     DPH,?XSP + 1
   \   00048B   AA82         MOV     R2,DPL
   \   00048D   AB83         MOV     R3,DPH
   \   00048F   12....       LCALL   ??strstr?relay
   \   000492   8A..         MOV     ?V0 + 0,R2
   \   000494   8B..         MOV     ?V0 + 1,R3
   \   000496   E5..         MOV     A,?V0 + 0
   \   000498   45..         ORL     A,?V0 + 1
   \   00049A   6043         JZ      ??SampleApp_ProcessEvent_26
    529              {
    530                SampleApp_SendPointToPointMessage(DevicesShortAddr[0],0x1004,pureRecMsg,strlen(pureRecMsg));
                                                                                                      ^
Warning[Pe167]: argument of type "unsigned char *" is incompatible with
          parameter of type "char const *"
   \   00049C                ; Setup parameters for call to function strlen
   \   00049C   85..82       MOV     DPL,?XSP + 0
   \   00049F   85..83       MOV     DPH,?XSP + 1
   \   0004A2   AA82         MOV     R2,DPL
   \   0004A4   AB83         MOV     R3,DPH
   \   0004A6   12....       LCALL   ??strlen?relay
   \   0004A9   8A..         MOV     ?V0 + 4,R2
   \   0004AB   8B..         MOV     ?V0 + 5,R3
   \   0004AD   85....       MOV     ?V0 + 0,?V0 + 4
   \   0004B0   85....       MOV     ?V0 + 1,?V0 + 5
   \   0004B3                ; Setup parameters for call to function SampleApp_SendPointToPointMessage
   \   0004B3   78..         MOV     R0,#?V0 + 0
   \   0004B5   12....       LCALL   ?PUSH_XSTACK_I_TWO
   \   0004B8   7402         MOV     A,#0x2
   \   0004BA   12....       LCALL   ?XSTACK_DISP0_8
   \   0004BD   8582..       MOV     ?V0 + 0,DPL
   \   0004C0   8583..       MOV     ?V0 + 1,DPH
   \   0004C3   78..         MOV     R0,#?V0 + 0
   \   0004C5   12....       LCALL   ?PUSH_XSTACK_I_TWO
   \   0004C8   7C04         MOV     R4,#0x4
   \   0004CA   7D10         MOV     R5,#0x10
   \   0004CC   90....       MOV     DPTR,#DevicesShortAddr
   \   0004CF   E0           MOVX    A,@DPTR
   \   0004D0   FA           MOV     R2,A
   \   0004D1   A3           INC     DPTR
   \   0004D2   E0           MOVX    A,@DPTR
   \   0004D3   FB           MOV     R3,A
   \   0004D4   12....       LCALL   ??SampleApp_SendPointToPointMessage?relay
   \   0004D7   7404         MOV     A,#0x4
   \   0004D9   12....       LCALL   ?DEALLOC_XSTACK8
   \   0004DC   02....       LJMP    ??SampleApp_ProcessEvent_24 & 0xFFFF
    531                //printf("dev0,");
    532              }else if(DevicesShortAddr[1]!=-1 && strstr(pureRecMsg,"dev1,")!=NULL)
                                                                ^
Warning[Pe167]: argument of type "unsigned char *" is incompatible with
          parameter of type "char const *"
   \                     ??SampleApp_ProcessEvent_26:
   \   0004DF   90....       MOV     DPTR,#DevicesShortAddr + 2
   \   0004E2   E0           MOVX    A,@DPTR
   \   0004E3   64FF         XRL     A,#0xff
   \   0004E5   7004         JNZ     ??SampleApp_ProcessEvent_27
   \   0004E7   A3           INC     DPTR
   \   0004E8   E0           MOVX    A,@DPTR
   \   0004E9   64FF         XRL     A,#0xff
   \                     ??SampleApp_ProcessEvent_27:
   \   0004EB   605E         JZ      ??SampleApp_ProcessEvent_28
   \   0004ED                ; Setup parameters for call to function strstr
   \   0004ED   7C..         MOV     R4,#`?<Constant "dev1,">` & 0xff
   \   0004EF   7D..         MOV     R5,#(`?<Constant "dev1,">` >> 8) & 0xff
   \   0004F1   85..82       MOV     DPL,?XSP + 0
   \   0004F4   85..83       MOV     DPH,?XSP + 1
   \   0004F7   AA82         MOV     R2,DPL
   \   0004F9   AB83         MOV     R3,DPH
   \   0004FB   12....       LCALL   ??strstr?relay
   \   0004FE   8A..         MOV     ?V0 + 0,R2
   \   000500   8B..         MOV     ?V0 + 1,R3
   \   000502   E5..         MOV     A,?V0 + 0
   \   000504   45..         ORL     A,?V0 + 1
   \   000506   6043         JZ      ??SampleApp_ProcessEvent_28
    533              {
    534                SampleApp_SendPointToPointMessage(DevicesShortAddr[1],0x1004,pureRecMsg,strlen(pureRecMsg));
                                                                                                      ^
Warning[Pe167]: argument of type "unsigned char *" is incompatible with
          parameter of type "char const *"
   \   000508                ; Setup parameters for call to function strlen
   \   000508   85..82       MOV     DPL,?XSP + 0
   \   00050B   85..83       MOV     DPH,?XSP + 1
   \   00050E   AA82         MOV     R2,DPL
   \   000510   AB83         MOV     R3,DPH
   \   000512   12....       LCALL   ??strlen?relay
   \   000515   8A..         MOV     ?V0 + 4,R2
   \   000517   8B..         MOV     ?V0 + 5,R3
   \   000519   85....       MOV     ?V0 + 0,?V0 + 4
   \   00051C   85....       MOV     ?V0 + 1,?V0 + 5
   \   00051F                ; Setup parameters for call to function SampleApp_SendPointToPointMessage
   \   00051F   78..         MOV     R0,#?V0 + 0
   \   000521   12....       LCALL   ?PUSH_XSTACK_I_TWO
   \   000524   7402         MOV     A,#0x2
   \   000526   12....       LCALL   ?XSTACK_DISP0_8
   \   000529   8582..       MOV     ?V0 + 0,DPL
   \   00052C   8583..       MOV     ?V0 + 1,DPH
   \   00052F   78..         MOV     R0,#?V0 + 0
   \   000531   12....       LCALL   ?PUSH_XSTACK_I_TWO
   \   000534   7C04         MOV     R4,#0x4
   \   000536   7D10         MOV     R5,#0x10
   \   000538   90....       MOV     DPTR,#DevicesShortAddr + 2
   \   00053B   E0           MOVX    A,@DPTR
   \   00053C   FA           MOV     R2,A
   \   00053D   A3           INC     DPTR
   \   00053E   E0           MOVX    A,@DPTR
   \   00053F   FB           MOV     R3,A
   \   000540   12....       LCALL   ??SampleApp_SendPointToPointMessage?relay
   \   000543   7404         MOV     A,#0x4
   \   000545   12....       LCALL   ?DEALLOC_XSTACK8
   \   000548   02....       LJMP    ??SampleApp_ProcessEvent_24 & 0xFFFF
    535                //printf("dev1,");
    536              }else if(DevicesShortAddr[2]!=-1 && strstr(pureRecMsg,"dev2,")!=NULL)
                                                                ^
Warning[Pe167]: argument of type "unsigned char *" is incompatible with
          parameter of type "char const *"
   \                     ??SampleApp_ProcessEvent_28:
   \   00054B   90....       MOV     DPTR,#DevicesShortAddr + 4
   \   00054E   E0           MOVX    A,@DPTR
   \   00054F   64FF         XRL     A,#0xff
   \   000551   7004         JNZ     ??SampleApp_ProcessEvent_29
   \   000553   A3           INC     DPTR
   \   000554   E0           MOVX    A,@DPTR
   \   000555   64FF         XRL     A,#0xff
   \                     ??SampleApp_ProcessEvent_29:
   \   000557   605E         JZ      ??SampleApp_ProcessEvent_30
   \   000559                ; Setup parameters for call to function strstr
   \   000559   7C..         MOV     R4,#`?<Constant "dev2,">` & 0xff
   \   00055B   7D..         MOV     R5,#(`?<Constant "dev2,">` >> 8) & 0xff
   \   00055D   85..82       MOV     DPL,?XSP + 0
   \   000560   85..83       MOV     DPH,?XSP + 1
   \   000563   AA82         MOV     R2,DPL
   \   000565   AB83         MOV     R3,DPH
   \   000567   12....       LCALL   ??strstr?relay
   \   00056A   8A..         MOV     ?V0 + 0,R2
   \   00056C   8B..         MOV     ?V0 + 1,R3
   \   00056E   E5..         MOV     A,?V0 + 0
   \   000570   45..         ORL     A,?V0 + 1
   \   000572   6043         JZ      ??SampleApp_ProcessEvent_30
    537              {
    538                SampleApp_SendPointToPointMessage(DevicesShortAddr[2],0x1004,pureRecMsg,strlen(pureRecMsg));
                                                                                                      ^
Warning[Pe167]: argument of type "unsigned char *" is incompatible with
          parameter of type "char const *"
   \   000574                ; Setup parameters for call to function strlen
   \   000574   85..82       MOV     DPL,?XSP + 0
   \   000577   85..83       MOV     DPH,?XSP + 1
   \   00057A   AA82         MOV     R2,DPL
   \   00057C   AB83         MOV     R3,DPH
   \   00057E   12....       LCALL   ??strlen?relay
   \   000581   8A..         MOV     ?V0 + 4,R2
   \   000583   8B..         MOV     ?V0 + 5,R3
   \   000585   85....       MOV     ?V0 + 0,?V0 + 4
   \   000588   85....       MOV     ?V0 + 1,?V0 + 5
   \   00058B                ; Setup parameters for call to function SampleApp_SendPointToPointMessage
   \   00058B   78..         MOV     R0,#?V0 + 0
   \   00058D   12....       LCALL   ?PUSH_XSTACK_I_TWO
   \   000590   7402         MOV     A,#0x2
   \   000592   12....       LCALL   ?XSTACK_DISP0_8
   \   000595   8582..       MOV     ?V0 + 0,DPL
   \   000598   8583..       MOV     ?V0 + 1,DPH
   \   00059B   78..         MOV     R0,#?V0 + 0
   \   00059D   12....       LCALL   ?PUSH_XSTACK_I_TWO
   \   0005A0   7C04         MOV     R4,#0x4
   \   0005A2   7D10         MOV     R5,#0x10
   \   0005A4   90....       MOV     DPTR,#DevicesShortAddr + 4
   \   0005A7   E0           MOVX    A,@DPTR
   \   0005A8   FA           MOV     R2,A
   \   0005A9   A3           INC     DPTR
   \   0005AA   E0           MOVX    A,@DPTR
   \   0005AB   FB           MOV     R3,A
   \   0005AC   12....       LCALL   ??SampleApp_SendPointToPointMessage?relay
   \   0005AF   7404         MOV     A,#0x4
   \   0005B1   12....       LCALL   ?DEALLOC_XSTACK8
   \   0005B4   02....       LJMP    ??SampleApp_ProcessEvent_24 & 0xFFFF
    539                //printf("dev2,");
    540              }else if(DevicesShortAddr[3]!=-1 && strstr(pureRecMsg,"dev3,")!=NULL)
                                                                ^
Warning[Pe167]: argument of type "unsigned char *" is incompatible with
          parameter of type "char const *"
   \                     ??SampleApp_ProcessEvent_30:
   \   0005B7   90....       MOV     DPTR,#DevicesShortAddr + 6
   \   0005BA   E0           MOVX    A,@DPTR
   \   0005BB   64FF         XRL     A,#0xff
   \   0005BD   7004         JNZ     ??SampleApp_ProcessEvent_31
   \   0005BF   A3           INC     DPTR
   \   0005C0   E0           MOVX    A,@DPTR
   \   0005C1   64FF         XRL     A,#0xff
   \                     ??SampleApp_ProcessEvent_31:
   \   0005C3   605E         JZ      ??SampleApp_ProcessEvent_32
   \   0005C5                ; Setup parameters for call to function strstr
   \   0005C5   7C..         MOV     R4,#`?<Constant "dev3,">` & 0xff
   \   0005C7   7D..         MOV     R5,#(`?<Constant "dev3,">` >> 8) & 0xff
   \   0005C9   85..82       MOV     DPL,?XSP + 0
   \   0005CC   85..83       MOV     DPH,?XSP + 1
   \   0005CF   AA82         MOV     R2,DPL
   \   0005D1   AB83         MOV     R3,DPH
   \   0005D3   12....       LCALL   ??strstr?relay
   \   0005D6   8A..         MOV     ?V0 + 0,R2
   \   0005D8   8B..         MOV     ?V0 + 1,R3
   \   0005DA   E5..         MOV     A,?V0 + 0
   \   0005DC   45..         ORL     A,?V0 + 1
   \   0005DE   6043         JZ      ??SampleApp_ProcessEvent_32
    541              {
    542                SampleApp_SendPointToPointMessage(DevicesShortAddr[3],0x1004,pureRecMsg,strlen(pureRecMsg));
                                                                                                      ^
Warning[Pe167]: argument of type "unsigned char *" is incompatible with
          parameter of type "char const *"
   \   0005E0                ; Setup parameters for call to function strlen
   \   0005E0   85..82       MOV     DPL,?XSP + 0
   \   0005E3   85..83       MOV     DPH,?XSP + 1
   \   0005E6   AA82         MOV     R2,DPL
   \   0005E8   AB83         MOV     R3,DPH
   \   0005EA   12....       LCALL   ??strlen?relay
   \   0005ED   8A..         MOV     ?V0 + 4,R2
   \   0005EF   8B..         MOV     ?V0 + 5,R3
   \   0005F1   85....       MOV     ?V0 + 0,?V0 + 4
   \   0005F4   85....       MOV     ?V0 + 1,?V0 + 5
   \   0005F7                ; Setup parameters for call to function SampleApp_SendPointToPointMessage
   \   0005F7   78..         MOV     R0,#?V0 + 0
   \   0005F9   12....       LCALL   ?PUSH_XSTACK_I_TWO
   \   0005FC   7402         MOV     A,#0x2
   \   0005FE   12....       LCALL   ?XSTACK_DISP0_8
   \   000601   8582..       MOV     ?V0 + 0,DPL
   \   000604   8583..       MOV     ?V0 + 1,DPH
   \   000607   78..         MOV     R0,#?V0 + 0
   \   000609   12....       LCALL   ?PUSH_XSTACK_I_TWO
   \   00060C   7C04         MOV     R4,#0x4
   \   00060E   7D10         MOV     R5,#0x10
   \   000610   90....       MOV     DPTR,#DevicesShortAddr + 6
   \   000613   E0           MOVX    A,@DPTR
   \   000614   FA           MOV     R2,A
   \   000615   A3           INC     DPTR
   \   000616   E0           MOVX    A,@DPTR
   \   000617   FB           MOV     R3,A
   \   000618   12....       LCALL   ??SampleApp_SendPointToPointMessage?relay
   \   00061B   7404         MOV     A,#0x4
   \   00061D   12....       LCALL   ?DEALLOC_XSTACK8
   \   000620   02....       LJMP    ??SampleApp_ProcessEvent_24 & 0xFFFF
    543                //printf("dev3,");
    544              }else if(NULL!=strstr(pureRecMsg,"devstatus,ck"))
                                           ^
Warning[Pe167]: argument of type "unsigned char *" is incompatible with
          parameter of type "char const *"
   \                     ??SampleApp_ProcessEvent_32:
   \   000623                ; Setup parameters for call to function strstr
   \   000623   7C..         MOV     R4,#`?<Constant "devstatus,ck">` & 0xff
   \   000625   7D..         MOV     R5,#(`?<Constant "devstatus,ck">` >> 8) & 0xff
   \   000627   85..82       MOV     DPL,?XSP + 0
   \   00062A   85..83       MOV     DPH,?XSP + 1
   \   00062D   AA82         MOV     R2,DPL
   \   00062F   AB83         MOV     R3,DPH
   \   000631   12....       LCALL   ??strstr?relay
   \   000634   8A..         MOV     ?V0 + 0,R2
   \   000636   8B..         MOV     ?V0 + 1,R3
   \   000638   E5..         MOV     A,?V0 + 0
   \   00063A   45..         ORL     A,?V0 + 1
   \   00063C   7003         JNZ     $+5
   \   00063E   02....       LJMP    ??SampleApp_ProcessEvent_24 & 0xFFFF
    545              {
    546                sprintf(pureRecMsg, "devstatus,");
                               ^
Warning[Pe167]: argument of type "unsigned char *" is incompatible with
          parameter of type "char *"
   \   000641                ; Setup parameters for call to function sprintf
   \   000641   7C..         MOV     R4,#`?<Constant "devstatus,">` & 0xff
   \   000643   7D..         MOV     R5,#(`?<Constant "devstatus,">` >> 8) & 0xff
   \   000645   85..82       MOV     DPL,?XSP + 0
   \   000648   85..83       MOV     DPH,?XSP + 1
   \   00064B   AA82         MOV     R2,DPL
   \   00064D   AB83         MOV     R3,DPH
   \   00064F   12....       LCALL   ??sprintf?relay
    547                for(int i=0;i<sizeof(devicesOnlineStatus)/sizeof(devicesOnlineStatus[0]);i++)
   \   000652   75..00       MOV     ?V0 + 0,#0x0
   \   000655   75..00       MOV     ?V0 + 1,#0x0
   \                     ??SampleApp_ProcessEvent_33:
   \   000658   C3           CLR     C
   \   000659   E5..         MOV     A,?V0 + 0
   \   00065B   9404         SUBB    A,#0x4
   \   00065D   E5..         MOV     A,?V0 + 1
   \   00065F   9400         SUBB    A,#0x0
   \   000661   4003         JC      $+5
   \   000663   02....       LJMP    ??SampleApp_ProcessEvent_34 & 0xFFFF
    548                {
    549                  sprintf(pureRecMsg, "%s%d",pureRecMsg,devicesOnlineStatus[i]);
                                 ^
Warning[Pe167]: argument of type "unsigned char *" is incompatible with
          parameter of type "char *"
   \   000666                ; Setup parameters for call to function sprintf
   \   000666   A8..         MOV     R0,?V0 + 0
   \   000668   A9..         MOV     R1,?V0 + 1
   \   00066A   E8           MOV     A,R0
   \   00066B   75F002       MOV     B,#0x2
   \   00066E   A4           MUL     AB
   \   00066F   C8           XCH     A,R0
   \   000670   AAF0         MOV     R2,B
   \   000672   75F000       MOV     B,#0x0
   \   000675   A4           MUL     AB
   \   000676   2A           ADD     A,R2
   \   000677   FA           MOV     R2,A
   \   000678   75F002       MOV     B,#0x2
   \   00067B   E5..         MOV     A,?V0 + 1
   \   00067D   A4           MUL     AB
   \   00067E   2A           ADD     A,R2
   \   00067F   F9           MOV     R1,A
   \   000680   74..         MOV     A,#devicesOnlineStatus & 0xff
   \   000682   28           ADD     A,R0
   \   000683   F582         MOV     DPL,A
   \   000685   74..         MOV     A,#(devicesOnlineStatus >> 8) & 0xff
   \   000687   39           ADDC    A,R1
   \   000688   F583         MOV     DPH,A
   \   00068A   12....       LCALL   ?PUSH_XSTACK8_X_TWO
   \   00068D   7402         MOV     A,#0x2
   \   00068F   12....       LCALL   ?XSTACK_DISP0_8
   \   000692   8582..       MOV     ?V0 + 4,DPL
   \   000695   8583..       MOV     ?V0 + 5,DPH
   \   000698   78..         MOV     R0,#?V0 + 4
   \   00069A   12....       LCALL   ?PUSH_XSTACK_I_TWO
   \   00069D   7C..         MOV     R4,#`?<Constant "%s%d">` & 0xff
   \   00069F   7D..         MOV     R5,#(`?<Constant "%s%d">` >> 8) & 0xff
   \   0006A1   7404         MOV     A,#0x4
   \   0006A3   12....       LCALL   ?XSTACK_DISP0_8
   \   0006A6   AA82         MOV     R2,DPL
   \   0006A8   AB83         MOV     R3,DPH
   \   0006AA   12....       LCALL   ??sprintf?relay
   \   0006AD   7404         MOV     A,#0x4
   \   0006AF   12....       LCALL   ?DEALLOC_XSTACK8
    550                  if(devicesOnlineStatus[i])
   \   0006B2   A8..         MOV     R0,?V0 + 0
   \   0006B4   A9..         MOV     R1,?V0 + 1
   \   0006B6   E8           MOV     A,R0
   \   0006B7   75F002       MOV     B,#0x2
   \   0006BA   A4           MUL     AB
   \   0006BB   C8           XCH     A,R0
   \   0006BC   AAF0         MOV     R2,B
   \   0006BE   75F000       MOV     B,#0x0
   \   0006C1   A4           MUL     AB
   \   0006C2   2A           ADD     A,R2
   \   0006C3   FA           MOV     R2,A
   \   0006C4   75F002       MOV     B,#0x2
   \   0006C7   E5..         MOV     A,?V0 + 1
   \   0006C9   A4           MUL     AB
   \   0006CA   2A           ADD     A,R2
   \   0006CB   F9           MOV     R1,A
   \   0006CC   74..         MOV     A,#devicesOnlineStatus & 0xff
   \   0006CE   28           ADD     A,R0
   \   0006CF   F582         MOV     DPL,A
   \   0006D1   74..         MOV     A,#(devicesOnlineStatus >> 8) & 0xff
   \   0006D3   39           ADDC    A,R1
   \   0006D4   F583         MOV     DPH,A
   \   0006D6   E0           MOVX    A,@DPTR
   \   0006D7   F8           MOV     R0,A
   \   0006D8   A3           INC     DPTR
   \   0006D9   E0           MOVX    A,@DPTR
   \   0006DA   F9           MOV     R1,A
   \   0006DB   E8           MOV     A,R0
   \   0006DC   49           ORL     A,R1
   \   0006DD   604B         JZ      ??SampleApp_ProcessEvent_35
    551                  {
    552                    SampleApp_SendPointToPointMessage(DevicesShortAddr[i],0x1004,"status,ck",strlen("status,ck"));
   \   0006DF                ; Setup parameters for call to function SampleApp_SendPointToPointMessage
   \   0006DF   75..09       MOV     ?V0 + 4,#0x9
   \   0006E2   75..00       MOV     ?V0 + 5,#0x0
   \   0006E5   78..         MOV     R0,#?V0 + 4
   \   0006E7   12....       LCALL   ?PUSH_XSTACK_I_TWO
   \   0006EA   75....       MOV     ?V0 + 4,#`?<Constant "status,ck">` & 0xff
   \   0006ED   75....       MOV     ?V0 + 5,#(`?<Constant "status,ck">` >> 8) & 0xff
   \   0006F0   78..         MOV     R0,#?V0 + 4
   \   0006F2   12....       LCALL   ?PUSH_XSTACK_I_TWO
   \   0006F5   7C04         MOV     R4,#0x4
   \   0006F7   7D10         MOV     R5,#0x10
   \   0006F9   A8..         MOV     R0,?V0 + 0
   \   0006FB   A9..         MOV     R1,?V0 + 1
   \   0006FD   E8           MOV     A,R0
   \   0006FE   75F002       MOV     B,#0x2
   \   000701   A4           MUL     AB
   \   000702   C8           XCH     A,R0
   \   000703   AAF0         MOV     R2,B
   \   000705   75F000       MOV     B,#0x0
   \   000708   A4           MUL     AB
   \   000709   2A           ADD     A,R2
   \   00070A   FA           MOV     R2,A
   \   00070B   75F002       MOV     B,#0x2
   \   00070E   E5..         MOV     A,?V0 + 1
   \   000710   A4           MUL     AB
   \   000711   2A           ADD     A,R2
   \   000712   F9           MOV     R1,A
   \   000713   74..         MOV     A,#DevicesShortAddr & 0xff
   \   000715   28           ADD     A,R0
   \   000716   F582         MOV     DPL,A
   \   000718   74..         MOV     A,#(DevicesShortAddr >> 8) & 0xff
   \   00071A   39           ADDC    A,R1
   \   00071B   F583         MOV     DPH,A
   \   00071D   E0           MOVX    A,@DPTR
   \   00071E   FA           MOV     R2,A
   \   00071F   A3           INC     DPTR
   \   000720   E0           MOVX    A,@DPTR
   \   000721   FB           MOV     R3,A
   \   000722   12....       LCALL   ??SampleApp_SendPointToPointMessage?relay
   \   000725   7404         MOV     A,#0x4
   \   000727   12....       LCALL   ?DEALLOC_XSTACK8
    553                  }
    554                }
   \                     ??SampleApp_ProcessEvent_35:
   \   00072A   E5..         MOV     A,?V0 + 0
   \   00072C   2401         ADD     A,#0x1
   \   00072E   F5..         MOV     ?V0 + 0,A
   \   000730   E5..         MOV     A,?V0 + 1
   \   000732   3400         ADDC    A,#0x0
   \   000734   F5..         MOV     ?V0 + 1,A
   \   000736   02....       LJMP    ??SampleApp_ProcessEvent_33 & 0xFFFF
    555                sprintf(mqtt_message, "%s",pureRecMsg);
                               ^
Warning[Pe167]: argument of type "unsigned char *" is incompatible with
          parameter of type "char *"
   \                     ??SampleApp_ProcessEvent_34:
   \   000739                ; Setup parameters for call to function sprintf
   \   000739   85..82       MOV     DPL,?XSP + 0
   \   00073C   85..83       MOV     DPH,?XSP + 1
   \   00073F   8582..       MOV     ?V0 + 0,DPL
   \   000742   8583..       MOV     ?V0 + 1,DPH
   \   000745   78..         MOV     R0,#?V0 + 0
   \   000747   12....       LCALL   ?PUSH_XSTACK_I_TWO
   \   00074A   7C..         MOV     R4,#`?<Constant "%s">` & 0xff
   \   00074C   7D..         MOV     R5,#(`?<Constant "%s">` >> 8) & 0xff
   \   00074E   7A..         MOV     R2,#mqtt_message & 0xff
   \   000750   7B..         MOV     R3,#(mqtt_message >> 8) & 0xff
   \   000752   12....       LCALL   ??sprintf?relay
   \   000755   7402         MOV     A,#0x2
   \   000757   12....       LCALL   ?DEALLOC_XSTACK8
    556                osal_start_timerEx( SampleApp_TaskID, SAMPLEAPP_COOR_SEND_MQTT_EVT,1 );
   \   00075A                ; Setup parameters for call to function osal_start_timerEx
   \   00075A   7C01         MOV     R4,#0x1
   \   00075C   7D00         MOV     R5,#0x0
   \   00075E   7A40         MOV     R2,#0x40
   \   000760   7B00         MOV     R3,#0x0
   \   000762   90....       MOV     DPTR,#SampleApp_TaskID
   \   000765   E0           MOVX    A,@DPTR
   \   000766   F9           MOV     R1,A
   \   000767   12....       LCALL   ??osal_start_timerEx?relay
   \   00076A   E9           MOV     A,R1
    557                //Response2mqtt(pureRecMsg,"201");
    558                          
    559              }
    560              osal_memset(MqttRecMsg, 0, 200);
   \                     ??SampleApp_ProcessEvent_24:
   \   00076B                ; Setup parameters for call to function osal_memset
   \   00076B   7CC8         MOV     R4,#-0x38
   \   00076D   7D00         MOV     R5,#0x0
   \   00076F   7900         MOV     R1,#0x0
   \   000771   7A..         MOV     R2,#MqttRecMsg & 0xff
   \   000773   7B..         MOV     R3,#(MqttRecMsg >> 8) & 0xff
   \   000775   12....       LCALL   ??osal_memset?relay
    561              
    562              return (events ^ SAMPLEAPP_COOR_CHECK_MQTT_EVT);
   \   000778   EE           MOV     A,R6
   \   000779   6420         XRL     A,#0x20
   \   00077B   FA           MOV     R2,A
   \   00077C   EF           MOV     A,R7
   \   00077D   6400         XRL     A,#0x0
   \   00077F   FB           MOV     R3,A
   \   000780   802B         SJMP    ??SampleApp_ProcessEvent_10
    563            }  
    564            
    565              if ( events & SAMPLEAPP_COOR_SEND_MQTT_EVT )//协调器主动发送mqtt事件
   \                     ??SampleApp_ProcessEvent_20:
   \   000782   EE           MOV     A,R6
   \   000783   5440         ANL     A,#0x40
   \   000785   6022         JZ      ??SampleApp_ProcessEvent_36
    566              {
    567                Response2mqtt(mqtt_message,"201");
   \   000787                ; Setup parameters for call to function Response2mqtt
   \   000787   7C..         MOV     R4,#`?<Constant "201">` & 0xff
   \   000789   7D..         MOV     R5,#(`?<Constant "201">` >> 8) & 0xff
   \   00078B   7A..         MOV     R2,#mqtt_message & 0xff
   \   00078D   7B..         MOV     R3,#(mqtt_message >> 8) & 0xff
   \   00078F   12....       LCALL   ??Response2mqtt?relay
    568                osal_memset(mqtt_message, 0, 200);
   \   000792                ; Setup parameters for call to function osal_memset
   \   000792   7CC8         MOV     R4,#-0x38
   \   000794   7D00         MOV     R5,#0x0
   \   000796   7900         MOV     R1,#0x0
   \   000798   7A..         MOV     R2,#mqtt_message & 0xff
   \   00079A   7B..         MOV     R3,#(mqtt_message >> 8) & 0xff
   \   00079C   12....       LCALL   ??osal_memset?relay
    569                return (events ^ SAMPLEAPP_COOR_SEND_MQTT_EVT);
   \   00079F   EE           MOV     A,R6
   \   0007A0   6440         XRL     A,#0x40
   \   0007A2   FA           MOV     R2,A
   \   0007A3   EF           MOV     A,R7
   \   0007A4   6400         XRL     A,#0x0
   \   0007A6   FB           MOV     R3,A
   \   0007A7   8004         SJMP    ??SampleApp_ProcessEvent_10
    570              }
    571            
    572          #else
    573            
    574            //定时器时间到
    575            if ( events & SAMPLEAPP_SEND_PERIODIC_MSG_EVT )
    576            {
    577              
    578              // DHT11采集
    579              //SampleApp_Send_P2P_Message();
    580              
    581              // Setup to send message again in normal period (+ a little jitter)
    582              osal_start_timerEx( SampleApp_TaskID, SAMPLEAPP_SEND_PERIODIC_MSG_EVT,
    583                                 (SAMPLEAPP_SEND_PERIODIC_MSG_TIMEOUT + (osal_rand() & 0x00FF)) );
    584              
    585              // return unprocessed events
    586              return (events ^ SAMPLEAPP_SEND_PERIODIC_MSG_EVT);
    587            }
    588            if ( events & SAMPLEAPP_ENDDEV_HEART_BEAT_EVT )//终端向协调器发送心跳包事件
    589            {
    590              
    591              SampleApp_SendPointToPointMessage(0x0000,0x1001,'\0',1);//发送心跳数据包
    592              osal_start_timerEx( SampleApp_TaskID, SAMPLEAPP_ENDDEV_HEART_BEAT_EVT,2000 );
    593              
    594              // return unprocessed events
    595              return (events ^ SAMPLEAPP_ENDDEV_HEART_BEAT_EVT);
    596            }
    597            
    598          #endif
    599            
    600            return ( 0 );  // Discard unknown events.
   \                     ??SampleApp_ProcessEvent_36:
   \   0007A9   7A00         MOV     R2,#0x0
   \   0007AB   7B00         MOV     R3,#0x0
   \                     ??SampleApp_ProcessEvent_10:
   \   0007AD   746B         MOV     A,#0x6b
   \   0007AF   12....       LCALL   ?DEALLOC_XSTACK8
   \   0007B2   7F06         MOV     R7,#0x6
   \   0007B4   02....       LJMP    ?BANKED_LEAVE_XDATA
   \   0007B7                REQUIRE _A_P1
    601          }
    602          
    603          /*********************************************************************
    604          * @fn      SerialApp_ProcessMSGCmd
    605          *
    606          * @brief   Data message processor callback. This function processes
    607          *          any incoming data - probably from other devices. Based
    608          *          on the cluster ID, perform the intended action.
    609          *
    610          * @param   pkt - pointer to the incoming message packet
    611          *
    612          * @return  TRUE if the 'pkt' parameter is being used and will be freed later,
    613          *          FALSE otherwise.
    614          */

   \                                 In  segment BANKED_CODE, align 1, keep-with-next
    615          void SampleApp_ProcessMSGCmd( afIncomingMSGPacket_t *pkt )
   \                     SampleApp_ProcessMSGCmd:
    616          {
   \   000000   74F4         MOV     A,#-0xc
   \   000002   12....       LCALL   ?BANKED_ENTER_XDATA
   \   000005                ; Saved register size: 12
   \   000005                ; Auto size: 204
   \   000005   7434         MOV     A,#0x34
   \   000007   12....       LCALL   ?ALLOC_XSTACK8
   \   00000A   EA           MOV     A,R2
   \   00000B   FE           MOV     R6,A
   \   00000C   EB           MOV     A,R3
   \   00000D   FF           MOV     R7,A
    617            //uint8 buff[200]={0};
    618            
    619            //uint8 dataID[5]={0};
    620            int dataID_int = 0;
   \   00000E   7402         MOV     A,#0x2
   \   000010   12....       LCALL   ?XSTACK_DISP0_8
   \   000013   7400         MOV     A,#0x0
   \   000015   F0           MOVX    @DPTR,A
   \   000016   A3           INC     DPTR
   \   000017   7400         MOV     A,#0x0
   \   000019   F0           MOVX    @DPTR,A
    621            int dataLens = 0;
   \   00001A   85..82       MOV     DPL,?XSP + 0
   \   00001D   85..83       MOV     DPH,?XSP + 1
   \   000020   7400         MOV     A,#0x0
   \   000022   F0           MOVX    @DPTR,A
   \   000023   A3           INC     DPTR
   \   000024   7400         MOV     A,#0x0
   \   000026   F0           MOVX    @DPTR,A
    622            uint8 data[200]={0};
   \   000027   90....       MOV     DPTR,#`?<Constant {0}>_2`
   \   00002A   C082         PUSH    DPL
   \   00002C   C083         PUSH    DPH
   \   00002E   7404         MOV     A,#0x4
   \   000030   12....       LCALL   ?XSTACK_DISP0_8
   \   000033   AC82         MOV     R4,DPL
   \   000035   AD83         MOV     R5,DPH
   \   000037   D083         POP     DPH
   \   000039   D082         POP     DPL
   \   00003B   74C8         MOV     A,#-0x38
   \   00003D   12....       LCALL   ?MOVE_LONG8_XDATA_XDATA
    623            //uint8 tmpData[200]={0};
    624            switch ( pkt->clusterId )
   \   000040   8E82         MOV     DPL,R6
   \   000042   8F83         MOV     DPH,R7
   \   000044   A3           INC     DPTR
   \   000045   A3           INC     DPTR
   \   000046   A3           INC     DPTR
   \   000047   A3           INC     DPTR
   \   000048   E0           MOVX    A,@DPTR
   \   000049   F5..         MOV     ?V0 + 0,A
   \   00004B   A3           INC     DPTR
   \   00004C   E0           MOVX    A,@DPTR
   \   00004D   F5..         MOV     ?V0 + 1,A
   \   00004F   78..         MOV     R0,#?V0 + 0
   \   000051   12....       LCALL   ?US_SWITCH_DENSE
   \                     `?<Jumptable for SampleApp_ProcessMSGCmd>_0`:
   \   000054   0100         DW        1
   \   000056   01           DB        1
   \   000057   ....         DW        ??SampleApp_ProcessMSGCmd_0
   \   000059   ....         DW        ??SampleApp_ProcessMSGCmd_1
   \   00005B   ....         DW        ??SampleApp_ProcessMSGCmd_0
    625            {
    626              // 接收终端上传的温度数据
    627            case SAMPLEAPP_P2P_CLUSTERID:
    628              
    629              {
    630                
    631                memcpy(data,pkt->cmd.Data,4);
   \                     ??SampleApp_ProcessMSGCmd_1:
   \   00005D                ; Setup parameters for call to function memcpy
   \   00005D   75..04       MOV     ?V0 + 0,#0x4
   \   000060   75..00       MOV     ?V0 + 1,#0x0
   \   000063   78..         MOV     R0,#?V0 + 0
   \   000065   12....       LCALL   ?PUSH_XSTACK_I_TWO
   \   000068   EE           MOV     A,R6
   \   000069   2422         ADD     A,#0x22
   \   00006B   F582         MOV     DPL,A
   \   00006D   EF           MOV     A,R7
   \   00006E   3400         ADDC    A,#0x0
   \   000070   F583         MOV     DPH,A
   \   000072   E0           MOVX    A,@DPTR
   \   000073   FC           MOV     R4,A
   \   000074   A3           INC     DPTR
   \   000075   E0           MOVX    A,@DPTR
   \   000076   FD           MOV     R5,A
   \   000077   7406         MOV     A,#0x6
   \   000079   12....       LCALL   ?XSTACK_DISP0_8
   \   00007C   AA82         MOV     R2,DPL
   \   00007E   AB83         MOV     R3,DPH
   \   000080   12....       LCALL   ??memcpy?relay
   \   000083   7402         MOV     A,#0x2
   \   000085   12....       LCALL   ?DEALLOC_XSTACK8
    632                data[4]='\0';
   \   000088   7408         MOV     A,#0x8
   \   00008A   12....       LCALL   ?XSTACK_DISP0_8
   \   00008D   7400         MOV     A,#0x0
   \   00008F   F0           MOVX    @DPTR,A
    633                sscanf((char*)data, "%4d", &dataID_int ); 
   \   000090                ; Setup parameters for call to function sscanf
   \   000090   7402         MOV     A,#0x2
   \   000092   12....       LCALL   ?XSTACK_DISP0_8
   \   000095   8582..       MOV     ?V0 + 0,DPL
   \   000098   8583..       MOV     ?V0 + 1,DPH
   \   00009B   78..         MOV     R0,#?V0 + 0
   \   00009D   12....       LCALL   ?PUSH_XSTACK_I_TWO
   \   0000A0   7C..         MOV     R4,#`?<Constant "%4d">` & 0xff
   \   0000A2   7D..         MOV     R5,#(`?<Constant "%4d">` >> 8) & 0xff
   \   0000A4   7406         MOV     A,#0x6
   \   0000A6   12....       LCALL   ?XSTACK_DISP0_8
   \   0000A9   AA82         MOV     R2,DPL
   \   0000AB   AB83         MOV     R3,DPH
   \   0000AD   12....       LCALL   ??sscanf?relay
   \   0000B0   7402         MOV     A,#0x2
   \   0000B2   12....       LCALL   ?DEALLOC_XSTACK8
    634                memcpy(data,(pkt->cmd.Data)+4,4);
   \   0000B5                ; Setup parameters for call to function memcpy
   \   0000B5   75..04       MOV     ?V0 + 0,#0x4
   \   0000B8   75..00       MOV     ?V0 + 1,#0x0
   \   0000BB   78..         MOV     R0,#?V0 + 0
   \   0000BD   12....       LCALL   ?PUSH_XSTACK_I_TWO
   \   0000C0   EE           MOV     A,R6
   \   0000C1   2422         ADD     A,#0x22
   \   0000C3   F582         MOV     DPL,A
   \   0000C5   EF           MOV     A,R7
   \   0000C6   3400         ADDC    A,#0x0
   \   0000C8   F583         MOV     DPH,A
   \   0000CA   E0           MOVX    A,@DPTR
   \   0000CB   2404         ADD     A,#0x4
   \   0000CD   FC           MOV     R4,A
   \   0000CE   A3           INC     DPTR
   \   0000CF   E0           MOVX    A,@DPTR
   \   0000D0   3400         ADDC    A,#0x0
   \   0000D2   FD           MOV     R5,A
   \   0000D3   7406         MOV     A,#0x6
   \   0000D5   12....       LCALL   ?XSTACK_DISP0_8
   \   0000D8   AA82         MOV     R2,DPL
   \   0000DA   AB83         MOV     R3,DPH
   \   0000DC   12....       LCALL   ??memcpy?relay
   \   0000DF   7402         MOV     A,#0x2
   \   0000E1   12....       LCALL   ?DEALLOC_XSTACK8
    635                data[4]='\0';
   \   0000E4   7408         MOV     A,#0x8
   \   0000E6   12....       LCALL   ?XSTACK_DISP0_8
   \   0000E9   7400         MOV     A,#0x0
   \   0000EB   F0           MOVX    @DPTR,A
    636                sscanf((char*)data, "%4d", &dataLens ); 
   \   0000EC                ; Setup parameters for call to function sscanf
   \   0000EC   85..82       MOV     DPL,?XSP + 0
   \   0000EF   85..83       MOV     DPH,?XSP + 1
   \   0000F2   8582..       MOV     ?V0 + 0,DPL
   \   0000F5   8583..       MOV     ?V0 + 1,DPH
   \   0000F8   78..         MOV     R0,#?V0 + 0
   \   0000FA   12....       LCALL   ?PUSH_XSTACK_I_TWO
   \   0000FD   7C..         MOV     R4,#`?<Constant "%4d">` & 0xff
   \   0000FF   7D..         MOV     R5,#(`?<Constant "%4d">` >> 8) & 0xff
   \   000101   7406         MOV     A,#0x6
   \   000103   12....       LCALL   ?XSTACK_DISP0_8
   \   000106   AA82         MOV     R2,DPL
   \   000108   AB83         MOV     R3,DPH
   \   00010A   12....       LCALL   ??sscanf?relay
   \   00010D   7402         MOV     A,#0x2
   \   00010F   12....       LCALL   ?DEALLOC_XSTACK8
    637                memcpy(data,pkt->cmd.Data+8,dataLens-8);
   \   000112                ; Setup parameters for call to function memcpy
   \   000112   85..82       MOV     DPL,?XSP + 0
   \   000115   85..83       MOV     DPH,?XSP + 1
   \   000118   E0           MOVX    A,@DPTR
   \   000119   24F8         ADD     A,#-0x8
   \   00011B   F5..         MOV     ?V0 + 0,A
   \   00011D   A3           INC     DPTR
   \   00011E   E0           MOVX    A,@DPTR
   \   00011F   34FF         ADDC    A,#-0x1
   \   000121   F5..         MOV     ?V0 + 1,A
   \   000123   78..         MOV     R0,#?V0 + 0
   \   000125   12....       LCALL   ?PUSH_XSTACK_I_TWO
   \   000128   EE           MOV     A,R6
   \   000129   2422         ADD     A,#0x22
   \   00012B   F582         MOV     DPL,A
   \   00012D   EF           MOV     A,R7
   \   00012E   3400         ADDC    A,#0x0
   \   000130   F583         MOV     DPH,A
   \   000132   E0           MOVX    A,@DPTR
   \   000133   2408         ADD     A,#0x8
   \   000135   FC           MOV     R4,A
   \   000136   A3           INC     DPTR
   \   000137   E0           MOVX    A,@DPTR
   \   000138   3400         ADDC    A,#0x0
   \   00013A   FD           MOV     R5,A
   \   00013B   7406         MOV     A,#0x6
   \   00013D   12....       LCALL   ?XSTACK_DISP0_8
   \   000140   AA82         MOV     R2,DPL
   \   000142   AB83         MOV     R3,DPH
   \   000144   12....       LCALL   ??memcpy?relay
   \   000147   7402         MOV     A,#0x2
   \   000149   12....       LCALL   ?DEALLOC_XSTACK8
    638                data[dataLens-8]='\0';
   \   00014C   85..82       MOV     DPL,?XSP + 0
   \   00014F   85..83       MOV     DPH,?XSP + 1
   \   000152   E0           MOVX    A,@DPTR
   \   000153   F8           MOV     R0,A
   \   000154   A3           INC     DPTR
   \   000155   E0           MOVX    A,@DPTR
   \   000156   F9           MOV     R1,A
   \   000157   7404         MOV     A,#0x4
   \   000159   12....       LCALL   ?XSTACK_DISP0_8
   \   00015C   E582         MOV     A,DPL
   \   00015E   28           ADD     A,R0
   \   00015F   F8           MOV     R0,A
   \   000160   E583         MOV     A,DPH
   \   000162   39           ADDC    A,R1
   \   000163   F9           MOV     R1,A
   \   000164   E8           MOV     A,R0
   \   000165   24F8         ADD     A,#-0x8
   \   000167   F582         MOV     DPL,A
   \   000169   E9           MOV     A,R1
   \   00016A   34FF         ADDC    A,#-0x1
   \   00016C   F583         MOV     DPH,A
   \   00016E   7400         MOV     A,#0x0
   \   000170   F0           MOVX    @DPTR,A
    639                
    640                
    641                //sprintf(buff, "%s", pkt->cmd.Data);
    642                HalLcdWriteString(data, HAL_LCD_LINE_4); //LCD显示
                                         ^
Warning[Pe167]: argument of type "unsigned char *" is incompatible with
          parameter of type "char *"
   \   000171                ; Setup parameters for call to function HalLcdWriteString
   \   000171   7904         MOV     R1,#0x4
   \   000173   7404         MOV     A,#0x4
   \   000175   12....       LCALL   ?XSTACK_DISP0_8
   \   000178   AA82         MOV     R2,DPL
   \   00017A   AB83         MOV     R3,DPH
   \   00017C   12....       LCALL   ??HalLcdWriteString?relay
    643                printf("%s", data);
   \   00017F                ; Setup parameters for call to function printf
   \   00017F   7404         MOV     A,#0x4
   \   000181   12....       LCALL   ?XSTACK_DISP0_8
   \   000184   8582..       MOV     ?V0 + 0,DPL
   \   000187   8583..       MOV     ?V0 + 1,DPH
   \   00018A   78..         MOV     R0,#?V0 + 0
   \   00018C   12....       LCALL   ?PUSH_XSTACK_I_TWO
   \   00018F   7A..         MOV     R2,#`?<Constant "%s">` & 0xff
   \   000191   7B..         MOV     R3,#(`?<Constant "%s">` >> 8) & 0xff
   \   000193   12....       LCALL   ??printf?relay
   \   000196   7402         MOV     A,#0x2
   \   000198   12....       LCALL   ?DEALLOC_XSTACK8
    644                //SampleApp_getIEEEAddr(buff);
    645                //HalLcdWriteString(buff, HAL_LCD_LINE_4); //LCD显示
    646                switch(dataID_int)
   \   00019B   7402         MOV     A,#0x2
   \   00019D   12....       LCALL   ?XSTACK_DISP0_8
   \   0001A0   E0           MOVX    A,@DPTR
   \   0001A1   F5..         MOV     ?V0 + 0,A
   \   0001A3   A3           INC     DPTR
   \   0001A4   E0           MOVX    A,@DPTR
   \   0001A5   F5..         MOV     ?V0 + 1,A
   \   0001A7   78..         MOV     R0,#?V0 + 0
   \   0001A9   12....       LCALL   ?US_SWITCH_DENSE
   \                     `?<Jumptable for SampleApp_ProcessMSGCmd>_1`:
   \   0001AC   E903         DW        1001
   \   0001AE   04           DB        4
   \   0001AF   ....         DW        ??SampleApp_ProcessMSGCmd_0
   \   0001B1   ....         DW        ??SampleApp_ProcessMSGCmd_2
   \   0001B3   ....         DW        ??SampleApp_ProcessMSGCmd_0
   \   0001B5   ....         DW        ??SampleApp_ProcessMSGCmd_3
   \   0001B7   ....         DW        ??SampleApp_ProcessMSGCmd_4
   \   0001B9   ....         DW        ??SampleApp_ProcessMSGCmd_5
    647                {
    648                case 1003://终端向协调器发送IEEE事件，此处自动填写shortAddr映射表DevicesShortAddr，DevicesIEEEAddr
    649                  {
    650          #ifdef ZDO_COORDINATOR
    651                    for(int i=0;i<sizeof(DevicesIEEEAddr)/sizeof(DevicesIEEEAddr[0]);i++)
   \                     ??SampleApp_ProcessMSGCmd_3:
   \   0001BB   75..00       MOV     ?V0 + 0,#0x0
   \   0001BE   75..00       MOV     ?V0 + 1,#0x0
   \                     ??SampleApp_ProcessMSGCmd_6:
   \   0001C1   C3           CLR     C
   \   0001C2   E5..         MOV     A,?V0 + 0
   \   0001C4   9404         SUBB    A,#0x4
   \   0001C6   E5..         MOV     A,?V0 + 1
   \   0001C8   9400         SUBB    A,#0x0
   \   0001CA   4003         JC      $+5
   \   0001CC   02....       LJMP    ??SampleApp_ProcessMSGCmd_0 & 0xFFFF
    652                    {
    653                      if(strncmp((char*)data,(char*)DevicesIEEEAddr[i],16)==0)
   \   0001CF                ; Setup parameters for call to function strncmp
   \   0001CF   75..10       MOV     ?V0 + 2,#0x10
   \   0001D2   75..00       MOV     ?V0 + 3,#0x0
   \   0001D5   78..         MOV     R0,#?V0 + 2
   \   0001D7   12....       LCALL   ?PUSH_XSTACK_I_TWO
   \   0001DA   A8..         MOV     R0,?V0 + 0
   \   0001DC   A9..         MOV     R1,?V0 + 1
   \   0001DE   E8           MOV     A,R0
   \   0001DF   75F011       MOV     B,#0x11
   \   0001E2   A4           MUL     AB
   \   0001E3   C8           XCH     A,R0
   \   0001E4   AAF0         MOV     R2,B
   \   0001E6   75F000       MOV     B,#0x0
   \   0001E9   A4           MUL     AB
   \   0001EA   2A           ADD     A,R2
   \   0001EB   FA           MOV     R2,A
   \   0001EC   75F011       MOV     B,#0x11
   \   0001EF   E5..         MOV     A,?V0 + 1
   \   0001F1   A4           MUL     AB
   \   0001F2   2A           ADD     A,R2
   \   0001F3   F9           MOV     R1,A
   \   0001F4   74..         MOV     A,#DevicesIEEEAddr & 0xff
   \   0001F6   28           ADD     A,R0
   \   0001F7   FC           MOV     R4,A
   \   0001F8   74..         MOV     A,#(DevicesIEEEAddr >> 8) & 0xff
   \   0001FA   39           ADDC    A,R1
   \   0001FB   FD           MOV     R5,A
   \   0001FC   7406         MOV     A,#0x6
   \   0001FE   12....       LCALL   ?XSTACK_DISP0_8
   \   000201   AA82         MOV     R2,DPL
   \   000203   AB83         MOV     R3,DPH
   \   000205   12....       LCALL   ??strncmp?relay
   \   000208   7402         MOV     A,#0x2
   \   00020A   12....       LCALL   ?DEALLOC_XSTACK8
   \   00020D   8A..         MOV     ?V0 + 2,R2
   \   00020F   8B..         MOV     ?V0 + 3,R3
   \   000211   E5..         MOV     A,?V0 + 2
   \   000213   45..         ORL     A,?V0 + 3
   \   000215   7068         JNZ     ??SampleApp_ProcessMSGCmd_7
    654                      {
    655                        DevicesShortAddr[i]=pkt->srcAddr.addr.shortAddr;
   \   000217   8E82         MOV     DPL,R6
   \   000219   8F83         MOV     DPH,R7
   \   00021B   A3           INC     DPTR
   \   00021C   A3           INC     DPTR
   \   00021D   A3           INC     DPTR
   \   00021E   A3           INC     DPTR
   \   00021F   A3           INC     DPTR
   \   000220   A3           INC     DPTR
   \   000221   E0           MOVX    A,@DPTR
   \   000222   FA           MOV     R2,A
   \   000223   A3           INC     DPTR
   \   000224   E0           MOVX    A,@DPTR
   \   000225   FB           MOV     R3,A
   \   000226   A8..         MOV     R0,?V0 + 0
   \   000228   A9..         MOV     R1,?V0 + 1
   \   00022A   E8           MOV     A,R0
   \   00022B   75F002       MOV     B,#0x2
   \   00022E   A4           MUL     AB
   \   00022F   C8           XCH     A,R0
   \   000230   ACF0         MOV     R4,B
   \   000232   75F000       MOV     B,#0x0
   \   000235   A4           MUL     AB
   \   000236   2C           ADD     A,R4
   \   000237   FC           MOV     R4,A
   \   000238   75F002       MOV     B,#0x2
   \   00023B   E5..         MOV     A,?V0 + 1
   \   00023D   A4           MUL     AB
   \   00023E   2C           ADD     A,R4
   \   00023F   F9           MOV     R1,A
   \   000240   74..         MOV     A,#DevicesShortAddr & 0xff
   \   000242   28           ADD     A,R0
   \   000243   F582         MOV     DPL,A
   \   000245   74..         MOV     A,#(DevicesShortAddr >> 8) & 0xff
   \   000247   39           ADDC    A,R1
   \   000248   F583         MOV     DPH,A
   \   00024A   EA           MOV     A,R2
   \   00024B   F0           MOVX    @DPTR,A
   \   00024C   A3           INC     DPTR
   \   00024D   EB           MOV     A,R3
   \   00024E   F0           MOVX    @DPTR,A
    656                        //sprintf((char*)data,"device %d linked",i);
    657          
    658                        if(onenet_login_ok==2)
   \   00024F   90....       MOV     DPTR,#onenet_login_ok
   \   000252   E0           MOVX    A,@DPTR
   \   000253   6402         XRL     A,#0x2
   \   000255   7037         JNZ     ??SampleApp_ProcessMSGCmd_8
    659                        {
    660                          sprintf(mqtt_message, "dev%d Linked",i);
                                         ^
Warning[Pe167]: argument of type "unsigned char *" is incompatible with
          parameter of type "char *"
   \   000257                ; Setup parameters for call to function sprintf
   \   000257   78..         MOV     R0,#?V0 + 0
   \   000259   12....       LCALL   ?PUSH_XSTACK_I_TWO
   \   00025C   7C..         MOV     R4,#`?<Constant "dev%d Linked">` & 0xff
   \   00025E   7D..         MOV     R5,#(`?<Constant "dev%d Linked">` >> 8) & 0xff
   \   000260   7A..         MOV     R2,#mqtt_message & 0xff
   \   000262   7B..         MOV     R3,#(mqtt_message >> 8) & 0xff
   \   000264   12....       LCALL   ??sprintf?relay
   \   000267   7402         MOV     A,#0x2
   \   000269   12....       LCALL   ?DEALLOC_XSTACK8
    661                          osal_start_timerEx( SampleApp_TaskID, SAMPLEAPP_COOR_SEND_MQTT_EVT,1 );
   \   00026C                ; Setup parameters for call to function osal_start_timerEx
   \   00026C   7C01         MOV     R4,#0x1
   \   00026E   7D00         MOV     R5,#0x0
   \   000270   7A40         MOV     R2,#0x40
   \   000272   7B00         MOV     R3,#0x0
   \   000274   90....       MOV     DPTR,#SampleApp_TaskID
   \   000277   E0           MOVX    A,@DPTR
   \   000278   F9           MOV     R1,A
   \   000279   12....       LCALL   ??osal_start_timerEx?relay
   \   00027C   E9           MOV     A,R1
    662                          //Response2mqtt(mqtt_message,"201");
    663                        }
    664          
    665                        break;
   \   00027D   800F         SJMP    ??SampleApp_ProcessMSGCmd_8
    666                      }
    667                    }
   \                     ??SampleApp_ProcessMSGCmd_7:
   \   00027F   E5..         MOV     A,?V0 + 0
   \   000281   2401         ADD     A,#0x1
   \   000283   F5..         MOV     ?V0 + 0,A
   \   000285   E5..         MOV     A,?V0 + 1
   \   000287   3400         ADDC    A,#0x0
   \   000289   F5..         MOV     ?V0 + 1,A
   \   00028B   02....       LJMP    ??SampleApp_ProcessMSGCmd_6 & 0xFFFF
    668          #endif
    669                  }break;
   \                     ??SampleApp_ProcessMSGCmd_8:
   \   00028E   02....       LJMP    ??SampleApp_ProcessMSGCmd_0 & 0xFFFF
    670                case 1001://心跳包数据事件
    671                  {
    672                    for(int i=0;i<sizeof(devicesOnline)/sizeof(devicesOnline[0]);i++)
   \                     ??SampleApp_ProcessMSGCmd_2:
   \   000291   7800         MOV     R0,#0x0
   \   000293   7900         MOV     R1,#0x0
   \                     ??SampleApp_ProcessMSGCmd_9:
   \   000295   C3           CLR     C
   \   000296   E8           MOV     A,R0
   \   000297   9404         SUBB    A,#0x4
   \   000299   E9           MOV     A,R1
   \   00029A   9400         SUBB    A,#0x0
   \   00029C   5071         JNC     ??SampleApp_ProcessMSGCmd_10
    673                    {
    674                      if(pkt->srcAddr.addr.shortAddr == DevicesShortAddr[i])
   \   00029E   8E82         MOV     DPL,R6
   \   0002A0   8F83         MOV     DPH,R7
   \   0002A2   A3           INC     DPTR
   \   0002A3   A3           INC     DPTR
   \   0002A4   A3           INC     DPTR
   \   0002A5   A3           INC     DPTR
   \   0002A6   A3           INC     DPTR
   \   0002A7   A3           INC     DPTR
   \   0002A8   E0           MOVX    A,@DPTR
   \   0002A9   FC           MOV     R4,A
   \   0002AA   A3           INC     DPTR
   \   0002AB   E0           MOVX    A,@DPTR
   \   0002AC   FD           MOV     R5,A
   \   0002AD   E8           MOV     A,R0
   \   0002AE   FA           MOV     R2,A
   \   0002AF   E9           MOV     A,R1
   \   0002B0   FB           MOV     R3,A
   \   0002B1   EA           MOV     A,R2
   \   0002B2   75F002       MOV     B,#0x2
   \   0002B5   A4           MUL     AB
   \   0002B6   CA           XCH     A,R2
   \   0002B7   85F0..       MOV     ?V0 + 0,B
   \   0002BA   75F000       MOV     B,#0x0
   \   0002BD   A4           MUL     AB
   \   0002BE   25..         ADD     A,?V0 + 0
   \   0002C0   F5..         MOV     ?V0 + 0,A
   \   0002C2   75F002       MOV     B,#0x2
   \   0002C5   EB           MOV     A,R3
   \   0002C6   A4           MUL     AB
   \   0002C7   25..         ADD     A,?V0 + 0
   \   0002C9   FB           MOV     R3,A
   \   0002CA   74..         MOV     A,#DevicesShortAddr & 0xff
   \   0002CC   2A           ADD     A,R2
   \   0002CD   F582         MOV     DPL,A
   \   0002CF   74..         MOV     A,#(DevicesShortAddr >> 8) & 0xff
   \   0002D1   3B           ADDC    A,R3
   \   0002D2   F583         MOV     DPH,A
   \   0002D4   E0           MOVX    A,@DPTR
   \   0002D5   6C           XRL     A,R4
   \   0002D6   7003         JNZ     ??SampleApp_ProcessMSGCmd_11
   \   0002D8   A3           INC     DPTR
   \   0002D9   E0           MOVX    A,@DPTR
   \   0002DA   6D           XRL     A,R5
   \                     ??SampleApp_ProcessMSGCmd_11:
   \   0002DB   7028         JNZ     ??SampleApp_ProcessMSGCmd_12
    675                      {
    676                        devicesOnline[i]=1;//发现心跳终端来信，即设置对应在线状态为在线
   \   0002DD   E8           MOV     A,R0
   \   0002DE   75F002       MOV     B,#0x2
   \   0002E1   A4           MUL     AB
   \   0002E2   C8           XCH     A,R0
   \   0002E3   AAF0         MOV     R2,B
   \   0002E5   75F000       MOV     B,#0x0
   \   0002E8   A4           MUL     AB
   \   0002E9   2A           ADD     A,R2
   \   0002EA   FA           MOV     R2,A
   \   0002EB   75F002       MOV     B,#0x2
   \   0002EE   E9           MOV     A,R1
   \   0002EF   A4           MUL     AB
   \   0002F0   2A           ADD     A,R2
   \   0002F1   F9           MOV     R1,A
   \   0002F2   74..         MOV     A,#devicesOnline & 0xff
   \   0002F4   28           ADD     A,R0
   \   0002F5   F582         MOV     DPL,A
   \   0002F7   74..         MOV     A,#(devicesOnline >> 8) & 0xff
   \   0002F9   39           ADDC    A,R1
   \   0002FA   F583         MOV     DPH,A
   \   0002FC   7401         MOV     A,#0x1
   \   0002FE   F0           MOVX    @DPTR,A
   \   0002FF   A3           INC     DPTR
   \   000300   7400         MOV     A,#0x0
   \   000302   F0           MOVX    @DPTR,A
    677                        break;
   \   000303   800A         SJMP    ??SampleApp_ProcessMSGCmd_10
    678                      }
    679                    }
   \                     ??SampleApp_ProcessMSGCmd_12:
   \   000305   E8           MOV     A,R0
   \   000306   2401         ADD     A,#0x1
   \   000308   F8           MOV     R0,A
   \   000309   E9           MOV     A,R1
   \   00030A   3400         ADDC    A,#0x0
   \   00030C   F9           MOV     R1,A
   \   00030D   8086         SJMP    ??SampleApp_ProcessMSGCmd_9
    680                    
    681                  }break;
   \                     ??SampleApp_ProcessMSGCmd_10:
   \   00030F   02....       LJMP    ??SampleApp_ProcessMSGCmd_0 & 0xFFFF
    682                case 1002://协调器向终端发送按键消息
    683                  {
    684                    
    685                  }break;
    686                case 1004://终端收到协调器向终端转发的mqtt消息
    687                  {
    688                    if(NULL!=strstr(data,"switch1,1"))//判断消息设置开关switch1命令为开
                                           ^
Warning[Pe167]: argument of type "unsigned char *" is incompatible with
          parameter of type "char const *"
   \                     ??SampleApp_ProcessMSGCmd_4:
   \   000312                ; Setup parameters for call to function strstr
   \   000312   7C..         MOV     R4,#`?<Constant "switch1,1">` & 0xff
   \   000314   7D..         MOV     R5,#(`?<Constant "switch1,1">` >> 8) & 0xff
   \   000316   7404         MOV     A,#0x4
   \   000318   12....       LCALL   ?XSTACK_DISP0_8
   \   00031B   AA82         MOV     R2,DPL
   \   00031D   AB83         MOV     R3,DPH
   \   00031F   12....       LCALL   ??strstr?relay
   \   000322   8A..         MOV     ?V0 + 0,R2
   \   000324   8B..         MOV     ?V0 + 1,R3
   \   000326   E5..         MOV     A,?V0 + 0
   \   000328   45..         ORL     A,?V0 + 1
   \   00032A   6068         JZ      ??SampleApp_ProcessMSGCmd_13
    689                    {
    690                      P0_5 = 1;
   \   00032C   D285         SETB    0x80.5
    691                      sprintf(data,"%s,%d","switch1",P0_5);
                                     ^
Warning[Pe167]: argument of type "unsigned char *" is incompatible with
          parameter of type "char *"
   \   00032E                ; Setup parameters for call to function sprintf
   \   00032E   A285         MOV     C,0x80.5
   \   000330   E4           CLR     A
   \   000331   33           RLC     A
   \   000332   F5..         MOV     ?V0 + 0,A
   \   000334   75..00       MOV     ?V0 + 1,#0x0
   \   000337   78..         MOV     R0,#?V0 + 0
   \   000339   12....       LCALL   ?PUSH_XSTACK_I_TWO
   \   00033C   75....       MOV     ?V0 + 0,#`?<Constant "switch1">` & 0xff
   \   00033F   75....       MOV     ?V0 + 1,#(`?<Constant "switch1">` >> 8) & 0xff
   \   000342   78..         MOV     R0,#?V0 + 0
   \   000344   12....       LCALL   ?PUSH_XSTACK_I_TWO
   \   000347   7C..         MOV     R4,#`?<Constant "%s,%d">` & 0xff
   \   000349   7D..         MOV     R5,#(`?<Constant "%s,%d">` >> 8) & 0xff
   \   00034B   7408         MOV     A,#0x8
   \   00034D   12....       LCALL   ?XSTACK_DISP0_8
   \   000350   AA82         MOV     R2,DPL
   \   000352   AB83         MOV     R3,DPH
   \   000354   12....       LCALL   ??sprintf?relay
   \   000357   7404         MOV     A,#0x4
   \   000359   12....       LCALL   ?DEALLOC_XSTACK8
    692                      SampleApp_SendPointToPointMessage(0x0000,0x1005,data,strlen(data));
                                                                                         ^
Warning[Pe167]: argument of type "unsigned char *" is incompatible with
          parameter of type "char const *"
   \   00035C                ; Setup parameters for call to function SampleApp_SendPointToPointMessage
   \   00035C                ; Setup parameters for call to function strlen
   \   00035C   7404         MOV     A,#0x4
   \   00035E   12....       LCALL   ?XSTACK_DISP0_8
   \   000361   AA82         MOV     R2,DPL
   \   000363   AB83         MOV     R3,DPH
   \   000365   12....       LCALL   ??strlen?relay
   \   000368   8A..         MOV     ?V0 + 0,R2
   \   00036A   8B..         MOV     ?V0 + 1,R3
   \   00036C   78..         MOV     R0,#?V0 + 0
   \   00036E   12....       LCALL   ?PUSH_XSTACK_I_TWO
   \   000371   7406         MOV     A,#0x6
   \   000373   12....       LCALL   ?XSTACK_DISP0_8
   \   000376   8582..       MOV     ?V0 + 0,DPL
   \   000379   8583..       MOV     ?V0 + 1,DPH
   \   00037C   78..         MOV     R0,#?V0 + 0
   \   00037E   12....       LCALL   ?PUSH_XSTACK_I_TWO
   \   000381   7C05         MOV     R4,#0x5
   \   000383   7D10         MOV     R5,#0x10
   \   000385   7A00         MOV     R2,#0x0
   \   000387   7B00         MOV     R3,#0x0
   \   000389   12....       LCALL   ??SampleApp_SendPointToPointMessage?relay
   \   00038C   7404         MOV     A,#0x4
   \   00038E   12....       LCALL   ?DEALLOC_XSTACK8
   \   000391   02....       LJMP    ??SampleApp_ProcessMSGCmd_0 & 0xFFFF
    693                    }
    694                    else if(NULL!=strstr(data,"switch1,0"))//判断消息设置开关switch1命令为关
                                                ^
Warning[Pe167]: argument of type "unsigned char *" is incompatible with
          parameter of type "char const *"
   \                     ??SampleApp_ProcessMSGCmd_13:
   \   000394                ; Setup parameters for call to function strstr
   \   000394   7C..         MOV     R4,#`?<Constant "switch1,0">` & 0xff
   \   000396   7D..         MOV     R5,#(`?<Constant "switch1,0">` >> 8) & 0xff
   \   000398   7404         MOV     A,#0x4
   \   00039A   12....       LCALL   ?XSTACK_DISP0_8
   \   00039D   AA82         MOV     R2,DPL
   \   00039F   AB83         MOV     R3,DPH
   \   0003A1   12....       LCALL   ??strstr?relay
   \   0003A4   8A..         MOV     ?V0 + 0,R2
   \   0003A6   8B..         MOV     ?V0 + 1,R3
   \   0003A8   E5..         MOV     A,?V0 + 0
   \   0003AA   45..         ORL     A,?V0 + 1
   \   0003AC   6068         JZ      ??SampleApp_ProcessMSGCmd_14
    695                    {
    696                      P0_5 = 0;
   \   0003AE   C285         CLR     0x80.5
    697                      sprintf(data,"%s,%d","switch1",P0_5);
                                     ^
Warning[Pe167]: argument of type "unsigned char *" is incompatible with
          parameter of type "char *"
   \   0003B0                ; Setup parameters for call to function sprintf
   \   0003B0   A285         MOV     C,0x80.5
   \   0003B2   E4           CLR     A
   \   0003B3   33           RLC     A
   \   0003B4   F5..         MOV     ?V0 + 0,A
   \   0003B6   75..00       MOV     ?V0 + 1,#0x0
   \   0003B9   78..         MOV     R0,#?V0 + 0
   \   0003BB   12....       LCALL   ?PUSH_XSTACK_I_TWO
   \   0003BE   75....       MOV     ?V0 + 0,#`?<Constant "switch1">` & 0xff
   \   0003C1   75....       MOV     ?V0 + 1,#(`?<Constant "switch1">` >> 8) & 0xff
   \   0003C4   78..         MOV     R0,#?V0 + 0
   \   0003C6   12....       LCALL   ?PUSH_XSTACK_I_TWO
   \   0003C9   7C..         MOV     R4,#`?<Constant "%s,%d">` & 0xff
   \   0003CB   7D..         MOV     R5,#(`?<Constant "%s,%d">` >> 8) & 0xff
   \   0003CD   7408         MOV     A,#0x8
   \   0003CF   12....       LCALL   ?XSTACK_DISP0_8
   \   0003D2   AA82         MOV     R2,DPL
   \   0003D4   AB83         MOV     R3,DPH
   \   0003D6   12....       LCALL   ??sprintf?relay
   \   0003D9   7404         MOV     A,#0x4
   \   0003DB   12....       LCALL   ?DEALLOC_XSTACK8
    698                      SampleApp_SendPointToPointMessage(0x0000,0x1005,data,strlen(data));            
                                                                                         ^
Warning[Pe167]: argument of type "unsigned char *" is incompatible with
          parameter of type "char const *"
   \   0003DE                ; Setup parameters for call to function SampleApp_SendPointToPointMessage
   \   0003DE                ; Setup parameters for call to function strlen
   \   0003DE   7404         MOV     A,#0x4
   \   0003E0   12....       LCALL   ?XSTACK_DISP0_8
   \   0003E3   AA82         MOV     R2,DPL
   \   0003E5   AB83         MOV     R3,DPH
   \   0003E7   12....       LCALL   ??strlen?relay
   \   0003EA   8A..         MOV     ?V0 + 0,R2
   \   0003EC   8B..         MOV     ?V0 + 1,R3
   \   0003EE   78..         MOV     R0,#?V0 + 0
   \   0003F0   12....       LCALL   ?PUSH_XSTACK_I_TWO
   \   0003F3   7406         MOV     A,#0x6
   \   0003F5   12....       LCALL   ?XSTACK_DISP0_8
   \   0003F8   8582..       MOV     ?V0 + 0,DPL
   \   0003FB   8583..       MOV     ?V0 + 1,DPH
   \   0003FE   78..         MOV     R0,#?V0 + 0
   \   000400   12....       LCALL   ?PUSH_XSTACK_I_TWO
   \   000403   7C05         MOV     R4,#0x5
   \   000405   7D10         MOV     R5,#0x10
   \   000407   7A00         MOV     R2,#0x0
   \   000409   7B00         MOV     R3,#0x0
   \   00040B   12....       LCALL   ??SampleApp_SendPointToPointMessage?relay
   \   00040E   7404         MOV     A,#0x4
   \   000410   12....       LCALL   ?DEALLOC_XSTACK8
   \   000413   02....       LJMP    ??SampleApp_ProcessMSGCmd_0 & 0xFFFF
    699                    }
    700                    else if(NULL!=strstr(data,"switch2,1"))//判断消息设置开关switch2命令为关开
                                                ^
Warning[Pe167]: argument of type "unsigned char *" is incompatible with
          parameter of type "char const *"
   \                     ??SampleApp_ProcessMSGCmd_14:
   \   000416                ; Setup parameters for call to function strstr
   \   000416   7C..         MOV     R4,#`?<Constant "switch2,1">` & 0xff
   \   000418   7D..         MOV     R5,#(`?<Constant "switch2,1">` >> 8) & 0xff
   \   00041A   7404         MOV     A,#0x4
   \   00041C   12....       LCALL   ?XSTACK_DISP0_8
   \   00041F   AA82         MOV     R2,DPL
   \   000421   AB83         MOV     R3,DPH
   \   000423   12....       LCALL   ??strstr?relay
   \   000426   8A..         MOV     ?V0 + 0,R2
   \   000428   8B..         MOV     ?V0 + 1,R3
   \   00042A   E5..         MOV     A,?V0 + 0
   \   00042C   45..         ORL     A,?V0 + 1
   \   00042E   6068         JZ      ??SampleApp_ProcessMSGCmd_15
    701                    {
    702                      P0_7 = 1;
   \   000430   D287         SETB    0x80.7
    703                      sprintf(data,"%s,%d","switch2",P0_7);
                                     ^
Warning[Pe167]: argument of type "unsigned char *" is incompatible with
          parameter of type "char *"
   \   000432                ; Setup parameters for call to function sprintf
   \   000432   A287         MOV     C,0x80.7
   \   000434   E4           CLR     A
   \   000435   33           RLC     A
   \   000436   F5..         MOV     ?V0 + 0,A
   \   000438   75..00       MOV     ?V0 + 1,#0x0
   \   00043B   78..         MOV     R0,#?V0 + 0
   \   00043D   12....       LCALL   ?PUSH_XSTACK_I_TWO
   \   000440   75....       MOV     ?V0 + 0,#`?<Constant "switch2">` & 0xff
   \   000443   75....       MOV     ?V0 + 1,#(`?<Constant "switch2">` >> 8) & 0xff
   \   000446   78..         MOV     R0,#?V0 + 0
   \   000448   12....       LCALL   ?PUSH_XSTACK_I_TWO
   \   00044B   7C..         MOV     R4,#`?<Constant "%s,%d">` & 0xff
   \   00044D   7D..         MOV     R5,#(`?<Constant "%s,%d">` >> 8) & 0xff
   \   00044F   7408         MOV     A,#0x8
   \   000451   12....       LCALL   ?XSTACK_DISP0_8
   \   000454   AA82         MOV     R2,DPL
   \   000456   AB83         MOV     R3,DPH
   \   000458   12....       LCALL   ??sprintf?relay
   \   00045B   7404         MOV     A,#0x4
   \   00045D   12....       LCALL   ?DEALLOC_XSTACK8
    704                      SampleApp_SendPointToPointMessage(0x0000,0x1005,data,strlen(data));
                                                                                         ^
Warning[Pe167]: argument of type "unsigned char *" is incompatible with
          parameter of type "char const *"
   \   000460                ; Setup parameters for call to function SampleApp_SendPointToPointMessage
   \   000460                ; Setup parameters for call to function strlen
   \   000460   7404         MOV     A,#0x4
   \   000462   12....       LCALL   ?XSTACK_DISP0_8
   \   000465   AA82         MOV     R2,DPL
   \   000467   AB83         MOV     R3,DPH
   \   000469   12....       LCALL   ??strlen?relay
   \   00046C   8A..         MOV     ?V0 + 0,R2
   \   00046E   8B..         MOV     ?V0 + 1,R3
   \   000470   78..         MOV     R0,#?V0 + 0
   \   000472   12....       LCALL   ?PUSH_XSTACK_I_TWO
   \   000475   7406         MOV     A,#0x6
   \   000477   12....       LCALL   ?XSTACK_DISP0_8
   \   00047A   8582..       MOV     ?V0 + 0,DPL
   \   00047D   8583..       MOV     ?V0 + 1,DPH
   \   000480   78..         MOV     R0,#?V0 + 0
   \   000482   12....       LCALL   ?PUSH_XSTACK_I_TWO
   \   000485   7C05         MOV     R4,#0x5
   \   000487   7D10         MOV     R5,#0x10
   \   000489   7A00         MOV     R2,#0x0
   \   00048B   7B00         MOV     R3,#0x0
   \   00048D   12....       LCALL   ??SampleApp_SendPointToPointMessage?relay
   \   000490   7404         MOV     A,#0x4
   \   000492   12....       LCALL   ?DEALLOC_XSTACK8
   \   000495   02....       LJMP    ??SampleApp_ProcessMSGCmd_0 & 0xFFFF
    705                    }
    706                    else if(NULL!=strstr(data,"switch2,0"))//判断消息设置开关switch2命令为关
                                                ^
Warning[Pe167]: argument of type "unsigned char *" is incompatible with
          parameter of type "char const *"
   \                     ??SampleApp_ProcessMSGCmd_15:
   \   000498                ; Setup parameters for call to function strstr
   \   000498   7C..         MOV     R4,#`?<Constant "switch2,0">` & 0xff
   \   00049A   7D..         MOV     R5,#(`?<Constant "switch2,0">` >> 8) & 0xff
   \   00049C   7404         MOV     A,#0x4
   \   00049E   12....       LCALL   ?XSTACK_DISP0_8
   \   0004A1   AA82         MOV     R2,DPL
   \   0004A3   AB83         MOV     R3,DPH
   \   0004A5   12....       LCALL   ??strstr?relay
   \   0004A8   8A..         MOV     ?V0 + 0,R2
   \   0004AA   8B..         MOV     ?V0 + 1,R3
   \   0004AC   E5..         MOV     A,?V0 + 0
   \   0004AE   45..         ORL     A,?V0 + 1
   \   0004B0   6068         JZ      ??SampleApp_ProcessMSGCmd_16
    707                    {
    708                      P0_7 = 0;
   \   0004B2   C287         CLR     0x80.7
    709                      sprintf(data,"%s,%d","switch2",P0_7);
                                     ^
Warning[Pe167]: argument of type "unsigned char *" is incompatible with
          parameter of type "char *"
   \   0004B4                ; Setup parameters for call to function sprintf
   \   0004B4   A287         MOV     C,0x80.7
   \   0004B6   E4           CLR     A
   \   0004B7   33           RLC     A
   \   0004B8   F5..         MOV     ?V0 + 0,A
   \   0004BA   75..00       MOV     ?V0 + 1,#0x0
   \   0004BD   78..         MOV     R0,#?V0 + 0
   \   0004BF   12....       LCALL   ?PUSH_XSTACK_I_TWO
   \   0004C2   75....       MOV     ?V0 + 0,#`?<Constant "switch2">` & 0xff
   \   0004C5   75....       MOV     ?V0 + 1,#(`?<Constant "switch2">` >> 8) & 0xff
   \   0004C8   78..         MOV     R0,#?V0 + 0
   \   0004CA   12....       LCALL   ?PUSH_XSTACK_I_TWO
   \   0004CD   7C..         MOV     R4,#`?<Constant "%s,%d">` & 0xff
   \   0004CF   7D..         MOV     R5,#(`?<Constant "%s,%d">` >> 8) & 0xff
   \   0004D1   7408         MOV     A,#0x8
   \   0004D3   12....       LCALL   ?XSTACK_DISP0_8
   \   0004D6   AA82         MOV     R2,DPL
   \   0004D8   AB83         MOV     R3,DPH
   \   0004DA   12....       LCALL   ??sprintf?relay
   \   0004DD   7404         MOV     A,#0x4
   \   0004DF   12....       LCALL   ?DEALLOC_XSTACK8
    710                      SampleApp_SendPointToPointMessage(0x0000,0x1005,data,strlen(data));
                                                                                         ^
Warning[Pe167]: argument of type "unsigned char *" is incompatible with
          parameter of type "char const *"
   \   0004E2                ; Setup parameters for call to function SampleApp_SendPointToPointMessage
   \   0004E2                ; Setup parameters for call to function strlen
   \   0004E2   7404         MOV     A,#0x4
   \   0004E4   12....       LCALL   ?XSTACK_DISP0_8
   \   0004E7   AA82         MOV     R2,DPL
   \   0004E9   AB83         MOV     R3,DPH
   \   0004EB   12....       LCALL   ??strlen?relay
   \   0004EE   8A..         MOV     ?V0 + 0,R2
   \   0004F0   8B..         MOV     ?V0 + 1,R3
   \   0004F2   78..         MOV     R0,#?V0 + 0
   \   0004F4   12....       LCALL   ?PUSH_XSTACK_I_TWO
   \   0004F7   7406         MOV     A,#0x6
   \   0004F9   12....       LCALL   ?XSTACK_DISP0_8
   \   0004FC   8582..       MOV     ?V0 + 0,DPL
   \   0004FF   8583..       MOV     ?V0 + 1,DPH
   \   000502   78..         MOV     R0,#?V0 + 0
   \   000504   12....       LCALL   ?PUSH_XSTACK_I_TWO
   \   000507   7C05         MOV     R4,#0x5
   \   000509   7D10         MOV     R5,#0x10
   \   00050B   7A00         MOV     R2,#0x0
   \   00050D   7B00         MOV     R3,#0x0
   \   00050F   12....       LCALL   ??SampleApp_SendPointToPointMessage?relay
   \   000512   7404         MOV     A,#0x4
   \   000514   12....       LCALL   ?DEALLOC_XSTACK8
   \   000517   02....       LJMP    ??SampleApp_ProcessMSGCmd_0 & 0xFFFF
    711                    }
    712                    
    713                    else if(NULL!=strstr(data,"switch1,ck"))//判断消息查询开关switch1命令
                                                ^
Warning[Pe167]: argument of type "unsigned char *" is incompatible with
          parameter of type "char const *"
   \                     ??SampleApp_ProcessMSGCmd_16:
   \   00051A                ; Setup parameters for call to function strstr
   \   00051A   7C..         MOV     R4,#`?<Constant "switch1,ck">` & 0xff
   \   00051C   7D..         MOV     R5,#(`?<Constant "switch1,ck">` >> 8) & 0xff
   \   00051E   7404         MOV     A,#0x4
   \   000520   12....       LCALL   ?XSTACK_DISP0_8
   \   000523   AA82         MOV     R2,DPL
   \   000525   AB83         MOV     R3,DPH
   \   000527   12....       LCALL   ??strstr?relay
   \   00052A   8A..         MOV     ?V0 + 0,R2
   \   00052C   8B..         MOV     ?V0 + 1,R3
   \   00052E   E5..         MOV     A,?V0 + 0
   \   000530   45..         ORL     A,?V0 + 1
   \   000532   6066         JZ      ??SampleApp_ProcessMSGCmd_17
    714                    {
    715                      sprintf(data,"%s,%d","switch1",P0_5);
                                     ^
Warning[Pe167]: argument of type "unsigned char *" is incompatible with
          parameter of type "char *"
   \   000534                ; Setup parameters for call to function sprintf
   \   000534   A285         MOV     C,0x80.5
   \   000536   E4           CLR     A
   \   000537   33           RLC     A
   \   000538   F5..         MOV     ?V0 + 0,A
   \   00053A   75..00       MOV     ?V0 + 1,#0x0
   \   00053D   78..         MOV     R0,#?V0 + 0
   \   00053F   12....       LCALL   ?PUSH_XSTACK_I_TWO
   \   000542   75....       MOV     ?V0 + 0,#`?<Constant "switch1">` & 0xff
   \   000545   75....       MOV     ?V0 + 1,#(`?<Constant "switch1">` >> 8) & 0xff
   \   000548   78..         MOV     R0,#?V0 + 0
   \   00054A   12....       LCALL   ?PUSH_XSTACK_I_TWO
   \   00054D   7C..         MOV     R4,#`?<Constant "%s,%d">` & 0xff
   \   00054F   7D..         MOV     R5,#(`?<Constant "%s,%d">` >> 8) & 0xff
   \   000551   7408         MOV     A,#0x8
   \   000553   12....       LCALL   ?XSTACK_DISP0_8
   \   000556   AA82         MOV     R2,DPL
   \   000558   AB83         MOV     R3,DPH
   \   00055A   12....       LCALL   ??sprintf?relay
   \   00055D   7404         MOV     A,#0x4
   \   00055F   12....       LCALL   ?DEALLOC_XSTACK8
    716                      SampleApp_SendPointToPointMessage(0x0000,0x1005,data,strlen(data));
                                                                                         ^
Warning[Pe167]: argument of type "unsigned char *" is incompatible with
          parameter of type "char const *"
   \   000562                ; Setup parameters for call to function SampleApp_SendPointToPointMessage
   \   000562                ; Setup parameters for call to function strlen
   \   000562   7404         MOV     A,#0x4
   \   000564   12....       LCALL   ?XSTACK_DISP0_8
   \   000567   AA82         MOV     R2,DPL
   \   000569   AB83         MOV     R3,DPH
   \   00056B   12....       LCALL   ??strlen?relay
   \   00056E   8A..         MOV     ?V0 + 0,R2
   \   000570   8B..         MOV     ?V0 + 1,R3
   \   000572   78..         MOV     R0,#?V0 + 0
   \   000574   12....       LCALL   ?PUSH_XSTACK_I_TWO
   \   000577   7406         MOV     A,#0x6
   \   000579   12....       LCALL   ?XSTACK_DISP0_8
   \   00057C   8582..       MOV     ?V0 + 0,DPL
   \   00057F   8583..       MOV     ?V0 + 1,DPH
   \   000582   78..         MOV     R0,#?V0 + 0
   \   000584   12....       LCALL   ?PUSH_XSTACK_I_TWO
   \   000587   7C05         MOV     R4,#0x5
   \   000589   7D10         MOV     R5,#0x10
   \   00058B   7A00         MOV     R2,#0x0
   \   00058D   7B00         MOV     R3,#0x0
   \   00058F   12....       LCALL   ??SampleApp_SendPointToPointMessage?relay
   \   000592   7404         MOV     A,#0x4
   \   000594   12....       LCALL   ?DEALLOC_XSTACK8
   \   000597   02....       LJMP    ??SampleApp_ProcessMSGCmd_0 & 0xFFFF
    717                    }
    718                    else if(NULL!=strstr(data,"switch2,ck"))//判断消息查询开关switch2命令
                                                ^
Warning[Pe167]: argument of type "unsigned char *" is incompatible with
          parameter of type "char const *"
   \                     ??SampleApp_ProcessMSGCmd_17:
   \   00059A                ; Setup parameters for call to function strstr
   \   00059A   7C..         MOV     R4,#`?<Constant "switch2,ck">` & 0xff
   \   00059C   7D..         MOV     R5,#(`?<Constant "switch2,ck">` >> 8) & 0xff
   \   00059E   7404         MOV     A,#0x4
   \   0005A0   12....       LCALL   ?XSTACK_DISP0_8
   \   0005A3   AA82         MOV     R2,DPL
   \   0005A5   AB83         MOV     R3,DPH
   \   0005A7   12....       LCALL   ??strstr?relay
   \   0005AA   8A..         MOV     ?V0 + 0,R2
   \   0005AC   8B..         MOV     ?V0 + 1,R3
   \   0005AE   E5..         MOV     A,?V0 + 0
   \   0005B0   45..         ORL     A,?V0 + 1
   \   0005B2   6066         JZ      ??SampleApp_ProcessMSGCmd_18
    719                    {
    720                      sprintf(data,"%s,%d","switch2",P0_7);
                                     ^
Warning[Pe167]: argument of type "unsigned char *" is incompatible with
          parameter of type "char *"
   \   0005B4                ; Setup parameters for call to function sprintf
   \   0005B4   A287         MOV     C,0x80.7
   \   0005B6   E4           CLR     A
   \   0005B7   33           RLC     A
   \   0005B8   F5..         MOV     ?V0 + 0,A
   \   0005BA   75..00       MOV     ?V0 + 1,#0x0
   \   0005BD   78..         MOV     R0,#?V0 + 0
   \   0005BF   12....       LCALL   ?PUSH_XSTACK_I_TWO
   \   0005C2   75....       MOV     ?V0 + 0,#`?<Constant "switch2">` & 0xff
   \   0005C5   75....       MOV     ?V0 + 1,#(`?<Constant "switch2">` >> 8) & 0xff
   \   0005C8   78..         MOV     R0,#?V0 + 0
   \   0005CA   12....       LCALL   ?PUSH_XSTACK_I_TWO
   \   0005CD   7C..         MOV     R4,#`?<Constant "%s,%d">` & 0xff
   \   0005CF   7D..         MOV     R5,#(`?<Constant "%s,%d">` >> 8) & 0xff
   \   0005D1   7408         MOV     A,#0x8
   \   0005D3   12....       LCALL   ?XSTACK_DISP0_8
   \   0005D6   AA82         MOV     R2,DPL
   \   0005D8   AB83         MOV     R3,DPH
   \   0005DA   12....       LCALL   ??sprintf?relay
   \   0005DD   7404         MOV     A,#0x4
   \   0005DF   12....       LCALL   ?DEALLOC_XSTACK8
    721                      SampleApp_SendPointToPointMessage(0x0000,0x1005,data,strlen(data));            
                                                                                         ^
Warning[Pe167]: argument of type "unsigned char *" is incompatible with
          parameter of type "char const *"
   \   0005E2                ; Setup parameters for call to function SampleApp_SendPointToPointMessage
   \   0005E2                ; Setup parameters for call to function strlen
   \   0005E2   7404         MOV     A,#0x4
   \   0005E4   12....       LCALL   ?XSTACK_DISP0_8
   \   0005E7   AA82         MOV     R2,DPL
   \   0005E9   AB83         MOV     R3,DPH
   \   0005EB   12....       LCALL   ??strlen?relay
   \   0005EE   8A..         MOV     ?V0 + 0,R2
   \   0005F0   8B..         MOV     ?V0 + 1,R3
   \   0005F2   78..         MOV     R0,#?V0 + 0
   \   0005F4   12....       LCALL   ?PUSH_XSTACK_I_TWO
   \   0005F7   7406         MOV     A,#0x6
   \   0005F9   12....       LCALL   ?XSTACK_DISP0_8
   \   0005FC   8582..       MOV     ?V0 + 0,DPL
   \   0005FF   8583..       MOV     ?V0 + 1,DPH
   \   000602   78..         MOV     R0,#?V0 + 0
   \   000604   12....       LCALL   ?PUSH_XSTACK_I_TWO
   \   000607   7C05         MOV     R4,#0x5
   \   000609   7D10         MOV     R5,#0x10
   \   00060B   7A00         MOV     R2,#0x0
   \   00060D   7B00         MOV     R3,#0x0
   \   00060F   12....       LCALL   ??SampleApp_SendPointToPointMessage?relay
   \   000612   7404         MOV     A,#0x4
   \   000614   12....       LCALL   ?DEALLOC_XSTACK8
   \   000617   02....       LJMP    ??SampleApp_ProcessMSGCmd_0 & 0xFFFF
    722                    }else if(NULL!=strstr(data,"status,ck"))//协调器发消息查询所有开关状态
                                                 ^
Warning[Pe167]: argument of type "unsigned char *" is incompatible with
          parameter of type "char const *"
   \                     ??SampleApp_ProcessMSGCmd_18:
   \   00061A                ; Setup parameters for call to function strstr
   \   00061A   7C..         MOV     R4,#`?<Constant "status,ck">` & 0xff
   \   00061C   7D..         MOV     R5,#(`?<Constant "status,ck">` >> 8) & 0xff
   \   00061E   7404         MOV     A,#0x4
   \   000620   12....       LCALL   ?XSTACK_DISP0_8
   \   000623   AA82         MOV     R2,DPL
   \   000625   AB83         MOV     R3,DPH
   \   000627   12....       LCALL   ??strstr?relay
   \   00062A   8A..         MOV     ?V0 + 0,R2
   \   00062C   8B..         MOV     ?V0 + 1,R3
   \   00062E   E5..         MOV     A,?V0 + 0
   \   000630   45..         ORL     A,?V0 + 1
   \   000632   607C         JZ      ??SampleApp_ProcessMSGCmd_19
    723                    {
    724                      sprintf(data,"%s,%d,%s,%d","switch1",P0_5,"switch2",P0_7);
                                     ^
Warning[Pe167]: argument of type "unsigned char *" is incompatible with
          parameter of type "char *"
   \   000634                ; Setup parameters for call to function sprintf
   \   000634   A287         MOV     C,0x80.7
   \   000636   E4           CLR     A
   \   000637   33           RLC     A
   \   000638   F5..         MOV     ?V0 + 0,A
   \   00063A   75..00       MOV     ?V0 + 1,#0x0
   \   00063D   78..         MOV     R0,#?V0 + 0
   \   00063F   12....       LCALL   ?PUSH_XSTACK_I_TWO
   \   000642   75....       MOV     ?V0 + 0,#`?<Constant "switch2">` & 0xff
   \   000645   75....       MOV     ?V0 + 1,#(`?<Constant "switch2">` >> 8) & 0xff
   \   000648   78..         MOV     R0,#?V0 + 0
   \   00064A   12....       LCALL   ?PUSH_XSTACK_I_TWO
   \   00064D   A285         MOV     C,0x80.5
   \   00064F   E4           CLR     A
   \   000650   33           RLC     A
   \   000651   F5..         MOV     ?V0 + 0,A
   \   000653   75..00       MOV     ?V0 + 1,#0x0
   \   000656   78..         MOV     R0,#?V0 + 0
   \   000658   12....       LCALL   ?PUSH_XSTACK_I_TWO
   \   00065B   75....       MOV     ?V0 + 0,#`?<Constant "switch1">` & 0xff
   \   00065E   75....       MOV     ?V0 + 1,#(`?<Constant "switch1">` >> 8) & 0xff
   \   000661   78..         MOV     R0,#?V0 + 0
   \   000663   12....       LCALL   ?PUSH_XSTACK_I_TWO
   \   000666   7C..         MOV     R4,#`?<Constant "%s,%d,%s,%d">` & 0xff
   \   000668   7D..         MOV     R5,#(`?<Constant "%s,%d,%s,%d">` >> 8) & 0xff
   \   00066A   740C         MOV     A,#0xc
   \   00066C   12....       LCALL   ?XSTACK_DISP0_8
   \   00066F   AA82         MOV     R2,DPL
   \   000671   AB83         MOV     R3,DPH
   \   000673   12....       LCALL   ??sprintf?relay
   \   000676   7408         MOV     A,#0x8
   \   000678   12....       LCALL   ?DEALLOC_XSTACK8
    725                      SampleApp_SendPointToPointMessage(0x0000,0x1005,data,strlen(data));
                                                                                         ^
Warning[Pe167]: argument of type "unsigned char *" is incompatible with
          parameter of type "char const *"
   \   00067B                ; Setup parameters for call to function SampleApp_SendPointToPointMessage
   \   00067B                ; Setup parameters for call to function strlen
   \   00067B   7404         MOV     A,#0x4
   \   00067D   12....       LCALL   ?XSTACK_DISP0_8
   \   000680   AA82         MOV     R2,DPL
   \   000682   AB83         MOV     R3,DPH
   \   000684   12....       LCALL   ??strlen?relay
   \   000687   8A..         MOV     ?V0 + 0,R2
   \   000689   8B..         MOV     ?V0 + 1,R3
   \   00068B   78..         MOV     R0,#?V0 + 0
   \   00068D   12....       LCALL   ?PUSH_XSTACK_I_TWO
   \   000690   7406         MOV     A,#0x6
   \   000692   12....       LCALL   ?XSTACK_DISP0_8
   \   000695   8582..       MOV     ?V0 + 0,DPL
   \   000698   8583..       MOV     ?V0 + 1,DPH
   \   00069B   78..         MOV     R0,#?V0 + 0
   \   00069D   12....       LCALL   ?PUSH_XSTACK_I_TWO
   \   0006A0   7C05         MOV     R4,#0x5
   \   0006A2   7D10         MOV     R5,#0x10
   \   0006A4   7A00         MOV     R2,#0x0
   \   0006A6   7B00         MOV     R3,#0x0
   \   0006A8   12....       LCALL   ??SampleApp_SendPointToPointMessage?relay
   \   0006AB   7404         MOV     A,#0x4
   \   0006AD   12....       LCALL   ?DEALLOC_XSTACK8
    726                    }
    727                  }break;
   \                     ??SampleApp_ProcessMSGCmd_19:
   \   0006B0   02....       LJMP    ??SampleApp_ProcessMSGCmd_0 & 0xFFFF
    728                case 1005://协调器收到终端向反馈的查询结果  data = "dev2,switch1,0",立即发送给服务器
    729                  {
    730                    //todo
    731                    //查询结果消息为{"msg":"dev2,switch1,0","flow":201}
    732          //          #ifdef ZDO_COORDINATOR
    733          //          if(onenet_login_ok==2)
    734          //          {
    735          //            Response2mqtt(data,"201");
    736          //          }
    737          //          #endif
    738          #ifdef ZDO_COORDINATOR
    739                    for(int i=0;i<sizeof(DevicesShortAddr)/sizeof(DevicesShortAddr[0]);i++)
   \                     ??SampleApp_ProcessMSGCmd_5:
   \   0006B3   75..00       MOV     ?V0 + 2,#0x0
   \   0006B6   75..00       MOV     ?V0 + 3,#0x0
   \                     ??SampleApp_ProcessMSGCmd_20:
   \   0006B9   C3           CLR     C
   \   0006BA   E5..         MOV     A,?V0 + 2
   \   0006BC   9404         SUBB    A,#0x4
   \   0006BE   E5..         MOV     A,?V0 + 3
   \   0006C0   9400         SUBB    A,#0x0
   \   0006C2   4003         JC      $+5
   \   0006C4   02....       LJMP    ??SampleApp_ProcessMSGCmd_0 & 0xFFFF
    740                    {
    741                      if(pkt->srcAddr.addr.shortAddr==DevicesShortAddr[i])
   \   0006C7   8E82         MOV     DPL,R6
   \   0006C9   8F83         MOV     DPH,R7
   \   0006CB   A3           INC     DPTR
   \   0006CC   A3           INC     DPTR
   \   0006CD   A3           INC     DPTR
   \   0006CE   A3           INC     DPTR
   \   0006CF   A3           INC     DPTR
   \   0006D0   A3           INC     DPTR
   \   0006D1   E0           MOVX    A,@DPTR
   \   0006D2   FA           MOV     R2,A
   \   0006D3   A3           INC     DPTR
   \   0006D4   E0           MOVX    A,@DPTR
   \   0006D5   FB           MOV     R3,A
   \   0006D6   A8..         MOV     R0,?V0 + 2
   \   0006D8   A9..         MOV     R1,?V0 + 3
   \   0006DA   E8           MOV     A,R0
   \   0006DB   75F002       MOV     B,#0x2
   \   0006DE   A4           MUL     AB
   \   0006DF   C8           XCH     A,R0
   \   0006E0   ACF0         MOV     R4,B
   \   0006E2   75F000       MOV     B,#0x0
   \   0006E5   A4           MUL     AB
   \   0006E6   2C           ADD     A,R4
   \   0006E7   FC           MOV     R4,A
   \   0006E8   75F002       MOV     B,#0x2
   \   0006EB   E5..         MOV     A,?V0 + 3
   \   0006ED   A4           MUL     AB
   \   0006EE   2C           ADD     A,R4
   \   0006EF   F9           MOV     R1,A
   \   0006F0   74..         MOV     A,#DevicesShortAddr & 0xff
   \   0006F2   28           ADD     A,R0
   \   0006F3   F582         MOV     DPL,A
   \   0006F5   74..         MOV     A,#(DevicesShortAddr >> 8) & 0xff
   \   0006F7   39           ADDC    A,R1
   \   0006F8   F583         MOV     DPH,A
   \   0006FA   E0           MOVX    A,@DPTR
   \   0006FB   6A           XRL     A,R2
   \   0006FC   7003         JNZ     ??SampleApp_ProcessMSGCmd_21
   \   0006FE   A3           INC     DPTR
   \   0006FF   E0           MOVX    A,@DPTR
   \   000700   6B           XRL     A,R3
   \                     ??SampleApp_ProcessMSGCmd_21:
   \   000701   7040         JNZ     ??SampleApp_ProcessMSGCmd_22
    742                      {
    743                        if(onenet_login_ok==2)
   \   000703   90....       MOV     DPTR,#onenet_login_ok
   \   000706   E0           MOVX    A,@DPTR
   \   000707   6402         XRL     A,#0x2
   \   000709   7047         JNZ     ??SampleApp_ProcessMSGCmd_0
    744                        {
    745                          sprintf(mqtt_message, "dev%d,%s",i,data);
                                         ^
Warning[Pe167]: argument of type "unsigned char *" is incompatible with
          parameter of type "char *"
   \   00070B                ; Setup parameters for call to function sprintf
   \   00070B   7404         MOV     A,#0x4
   \   00070D   12....       LCALL   ?XSTACK_DISP0_8
   \   000710   8582..       MOV     ?V0 + 0,DPL
   \   000713   8583..       MOV     ?V0 + 1,DPH
   \   000716   78..         MOV     R0,#?V0 + 0
   \   000718   12....       LCALL   ?PUSH_XSTACK_I_TWO
   \   00071B   78..         MOV     R0,#?V0 + 2
   \   00071D   12....       LCALL   ?PUSH_XSTACK_I_TWO
   \   000720   7C..         MOV     R4,#`?<Constant "dev%d,%s">` & 0xff
   \   000722   7D..         MOV     R5,#(`?<Constant "dev%d,%s">` >> 8) & 0xff
   \   000724   7A..         MOV     R2,#mqtt_message & 0xff
   \   000726   7B..         MOV     R3,#(mqtt_message >> 8) & 0xff
   \   000728   12....       LCALL   ??sprintf?relay
   \   00072B   7404         MOV     A,#0x4
   \   00072D   12....       LCALL   ?DEALLOC_XSTACK8
    746                          //Response2mqtt(mqtt_message,"201");
    747                          osal_start_timerEx( SampleApp_TaskID, SAMPLEAPP_COOR_SEND_MQTT_EVT,1 );
   \   000730                ; Setup parameters for call to function osal_start_timerEx
   \   000730   7C01         MOV     R4,#0x1
   \   000732   7D00         MOV     R5,#0x0
   \   000734   7A40         MOV     R2,#0x40
   \   000736   7B00         MOV     R3,#0x0
   \   000738   90....       MOV     DPTR,#SampleApp_TaskID
   \   00073B   E0           MOVX    A,@DPTR
   \   00073C   F9           MOV     R1,A
   \   00073D   12....       LCALL   ??osal_start_timerEx?relay
   \   000740   E9           MOV     A,R1
    748                        }
    749                        break;
   \   000741   800F         SJMP    ??SampleApp_ProcessMSGCmd_0
    750                      }
    751                    }
   \                     ??SampleApp_ProcessMSGCmd_22:
   \   000743   E5..         MOV     A,?V0 + 2
   \   000745   2401         ADD     A,#0x1
   \   000747   F5..         MOV     ?V0 + 2,A
   \   000749   E5..         MOV     A,?V0 + 3
   \   00074B   3400         ADDC    A,#0x0
   \   00074D   F5..         MOV     ?V0 + 3,A
   \   00074F   02....       LJMP    ??SampleApp_ProcessMSGCmd_20 & 0xFFFF
    752          #endif
    753                  }break;
    754                }
    755          #ifdef ZDO_COORDINATOR
    756                if(onenet_login_ok==3)
    757                {
    758                  //发送温湿度数据到onenet
    759                  //    OneNet_SendData(end_temp, end_hum);
    760                  
    761          //        sprintf(mqtt_message, 
    762          //                "{\"method\":\"thing.service.property.set\",\"id\":\"630262306\",\"params\":{\
    763          //                  \"code\":\"%s\"\
    764          //      },\"version\":\"1.0.0\"}",
    765          //      data);
    766                //mqtt_publish_topic(topics_post, mqtt_message);
    767                
    768                //  OneNet_publish_topic();
    769                }
    770          #endif
    771              }break;
    772              
    773            case SAMPLEAPP_PERIODIC_CLUSTERID:
    774              
    775              break;
    776              
    777            default:
    778              break;
    779            }
    780          }
   \                     ??SampleApp_ProcessMSGCmd_0:
   \   000752   74CC         MOV     A,#-0x34
   \   000754   12....       LCALL   ?DEALLOC_XSTACK8
   \   000757   7F04         MOV     R7,#0x4
   \   000759   02....       LJMP    ?BANKED_LEAVE_XDATA
   \   00075C                REQUIRE _A_P0
    781          
    782          #ifdef ZDO_COORDINATOR
    783          
    784          //发送MQTT数据

   \                                 In  segment BANKED_CODE, align 1, keep-with-next
    785          void ESP8266_SendData(char* buff, int len)
   \                     ESP8266_SendData:
    786          {
   \   000000   74F6         MOV     A,#-0xa
   \   000002   12....       LCALL   ?BANKED_ENTER_XDATA
   \   000005                ; Saved register size: 10
   \   000005                ; Auto size: 0
   \   000005   8A..         MOV     ?V0 + 0,R2
   \   000007   8B..         MOV     ?V0 + 1,R3
   \   000009   EC           MOV     A,R4
   \   00000A   FE           MOV     R6,A
   \   00000B   ED           MOV     A,R5
   \   00000C   FF           MOV     R7,A
    787            if(len==0) return;
   \   00000D   EE           MOV     A,R6
   \   00000E   4F           ORL     A,R7
   \   00000F   600D         JZ      ??ESP8266_SendData_0
    788            
    789            HalUARTWrite(0,buff, len);
                                  ^
Warning[Pe167]: argument of type "char *" is incompatible with parameter of
          type "unsigned char *"
   \   000011                ; Setup parameters for call to function HalUARTWrite
   \   000011   EE           MOV     A,R6
   \   000012   FC           MOV     R4,A
   \   000013   EF           MOV     A,R7
   \   000014   FD           MOV     R5,A
   \   000015   AA..         MOV     R2,?V0 + 0
   \   000017   AB..         MOV     R3,?V0 + 1
   \   000019   7900         MOV     R1,#0x0
   \   00001B   12....       LCALL   ??HalUARTWrite?relay
    790          }
   \                     ??ESP8266_SendData_0:
   \   00001E   7F02         MOV     R7,#0x2
   \   000020   02....       LJMP    ?BANKED_LEAVE_XDATA
    791          
    792          
    793          //接收到下发命令，或者接收到订阅的消息
    794          //topic:收到的主题
    795          //cmd::主题对应的内容

   \                                 In  segment BANKED_CODE, align 1, keep-with-next
    796          void mqtt_rx(uint8* topic, uint8* cmd)
   \                     mqtt_rx:
    797          {
   \   000000   74F2         MOV     A,#-0xe
   \   000002   12....       LCALL   ?BANKED_ENTER_XDATA
   \   000005                ; Saved register size: 14
   \   000005                ; Auto size: 300
   \   000005   7582D4       MOV     DPL,#-0x2c
   \   000008   7583FE       MOV     DPH,#-0x2
   \   00000B   12....       LCALL   ?ADD_XSTACK_DISP0_16
   \   00000E   8A..         MOV     ?V0 + 2,R2
   \   000010   8B..         MOV     ?V0 + 3,R3
   \   000012   8C..         MOV     ?V0 + 0,R4
   \   000014   8D..         MOV     ?V0 + 1,R5
    798            
    799            /*
    800            /a1xaMw4YerO/device/user/receive
    801            {
    802            "msg":"balabala",
    803            "flow":201  //201表示数据流转方向为设备2流向设备1
    804          }
    805            */
    806            
    807            HalLcdWriteString((char*)topic, HAL_LCD_LINE_1); //LCD显示
   \   000016                ; Setup parameters for call to function HalLcdWriteString
   \   000016   7901         MOV     R1,#0x1
   \   000018   AA..         MOV     R2,?V0 + 2
   \   00001A   AB..         MOV     R3,?V0 + 3
   \   00001C   12....       LCALL   ??HalLcdWriteString?relay
    808            HalLcdWriteString((char*)cmd, HAL_LCD_LINE_2); //LCD显示
   \   00001F                ; Setup parameters for call to function HalLcdWriteString
   \   00001F   7902         MOV     R1,#0x2
   \   000021   AA..         MOV     R2,?V0 + 0
   \   000023   AB..         MOV     R3,?V0 + 1
   \   000025   12....       LCALL   ??HalLcdWriteString?relay
    809            if(topic == NULL || cmd==NULL) return;
   \   000028   E5..         MOV     A,?V0 + 2
   \   00002A   45..         ORL     A,?V0 + 3
   \   00002C   6006         JZ      ??mqtt_rx_0
   \   00002E   E5..         MOV     A,?V0 + 0
   \   000030   45..         ORL     A,?V0 + 1
   \   000032   7003         JNZ     ??mqtt_rx_1
   \                     ??mqtt_rx_0:
   \   000034   02....       LJMP    ??mqtt_rx_2 & 0xFFFF
    810            uint8 buff[100]={0};
   \                     ??mqtt_rx_1:
   \   000037   90....       MOV     DPTR,#`?<Constant {0}>_3`
   \   00003A   C082         PUSH    DPL
   \   00003C   C083         PUSH    DPH
   \   00003E   74C8         MOV     A,#-0x38
   \   000040   12....       LCALL   ?XSTACK_DISP0_8
   \   000043   AC82         MOV     R4,DPL
   \   000045   AD83         MOV     R5,DPH
   \   000047   D083         POP     DPH
   \   000049   D082         POP     DPL
   \   00004B   7464         MOV     A,#0x64
   \   00004D   12....       LCALL   ?MOVE_LONG8_XDATA_XDATA
    811            uint8 method[100]={0};
   \   000050   90....       MOV     DPTR,#`?<Constant {0}>_4`
   \   000053   C082         PUSH    DPL
   \   000055   C083         PUSH    DPH
   \   000057   7464         MOV     A,#0x64
   \   000059   12....       LCALL   ?XSTACK_DISP0_8
   \   00005C   AC82         MOV     R4,DPL
   \   00005E   AD83         MOV     R5,DPH
   \   000060   D083         POP     DPH
   \   000062   D082         POP     DPL
   \   000064   7464         MOV     A,#0x64
   \   000066   12....       LCALL   ?MOVE_LONG8_XDATA_XDATA
    812            uint8 msg[100]={0};
   \   000069   90....       MOV     DPTR,#`?<Constant {0}>_5`
   \   00006C   C082         PUSH    DPL
   \   00006E   C083         PUSH    DPH
   \   000070   85..82       MOV     DPL,?XSP + 0
   \   000073   85..83       MOV     DPH,?XSP + 1
   \   000076   AC82         MOV     R4,DPL
   \   000078   AD83         MOV     R5,DPH
   \   00007A   D083         POP     DPH
   \   00007C   D082         POP     DPL
   \   00007E   7464         MOV     A,#0x64
   \   000080   12....       LCALL   ?MOVE_LONG8_XDATA_XDATA
    813            uint8* p_buff = NULL;
   \   000083   7E00         MOV     R6,#0x0
   \   000085   7F00         MOV     R7,#0x0
    814            memcpy(buff,topic,strlen(topic)+1);
                                            ^
Warning[Pe167]: argument of type "unsigned char *" is incompatible with
          parameter of type "char const *"
   \   000087                ; Setup parameters for call to function memcpy
   \   000087                ; Setup parameters for call to function strlen
   \   000087   AA..         MOV     R2,?V0 + 2
   \   000089   AB..         MOV     R3,?V0 + 3
   \   00008B   12....       LCALL   ??strlen?relay
   \   00008E   8A..         MOV     ?V0 + 4,R2
   \   000090   8B..         MOV     ?V0 + 5,R3
   \   000092   E5..         MOV     A,?V0 + 4
   \   000094   2401         ADD     A,#0x1
   \   000096   F5..         MOV     ?V0 + 4,A
   \   000098   E5..         MOV     A,?V0 + 5
   \   00009A   3400         ADDC    A,#0x0
   \   00009C   F5..         MOV     ?V0 + 5,A
   \   00009E   78..         MOV     R0,#?V0 + 4
   \   0000A0   12....       LCALL   ?PUSH_XSTACK_I_TWO
   \   0000A3   AC..         MOV     R4,?V0 + 2
   \   0000A5   AD..         MOV     R5,?V0 + 3
   \   0000A7   74CA         MOV     A,#-0x36
   \   0000A9   12....       LCALL   ?XSTACK_DISP0_8
   \   0000AC   AA82         MOV     R2,DPL
   \   0000AE   AB83         MOV     R3,DPH
   \   0000B0   12....       LCALL   ??memcpy?relay
   \   0000B3   7402         MOV     A,#0x2
   \   0000B5   12....       LCALL   ?DEALLOC_XSTACK8
    815            p_buff = strrchr(buff,'/')+1;
                                    ^
Warning[Pe167]: argument of type "unsigned char *" is incompatible with
          parameter of type "char const *"

    p_buff = strrchr(buff,'/')+1;
           ^
"e:\imtht\Documents\Code\Zigbee\ZStack-2.5.1a\Projects\zstack\Samples\SampleApp\Source\SampleApp.c",815  Warning[Pe513]: 
          a value of type "char *" cannot be assigned to an entity of type
          "unsigned char *"
   \   0000B8                ; Setup parameters for call to function strrchr
   \   0000B8   7C2F         MOV     R4,#0x2f
   \   0000BA   7D00         MOV     R5,#0x0
   \   0000BC   74C8         MOV     A,#-0x38
   \   0000BE   12....       LCALL   ?XSTACK_DISP0_8
   \   0000C1   AA82         MOV     R2,DPL
   \   0000C3   AB83         MOV     R3,DPH
   \   0000C5   12....       LCALL   ??strrchr?relay
   \   0000C8   8A82         MOV     DPL,R2
   \   0000CA   8B83         MOV     DPH,R3
   \   0000CC   A3           INC     DPTR
   \   0000CD   AE82         MOV     R6,DPL
   \   0000CF   AF83         MOV     R7,DPH
    816            memcpy(method,p_buff,strlen(p_buff)+1);
                                               ^
Warning[Pe167]: argument of type "unsigned char *" is incompatible with
          parameter of type "char const *"
   \   0000D1                ; Setup parameters for call to function memcpy
   \   0000D1                ; Setup parameters for call to function strlen
   \   0000D1   EE           MOV     A,R6
   \   0000D2   FA           MOV     R2,A
   \   0000D3   EF           MOV     A,R7
   \   0000D4   FB           MOV     R3,A
   \   0000D5   12....       LCALL   ??strlen?relay
   \   0000D8   8A..         MOV     ?V0 + 4,R2
   \   0000DA   8B..         MOV     ?V0 + 5,R3
   \   0000DC   E5..         MOV     A,?V0 + 4
   \   0000DE   2401         ADD     A,#0x1
   \   0000E0   F5..         MOV     ?V0 + 4,A
   \   0000E2   E5..         MOV     A,?V0 + 5
   \   0000E4   3400         ADDC    A,#0x0
   \   0000E6   F5..         MOV     ?V0 + 5,A
   \   0000E8   78..         MOV     R0,#?V0 + 4
   \   0000EA   12....       LCALL   ?PUSH_XSTACK_I_TWO
   \   0000ED   EE           MOV     A,R6
   \   0000EE   FC           MOV     R4,A
   \   0000EF   EF           MOV     A,R7
   \   0000F0   FD           MOV     R5,A
   \   0000F1   7466         MOV     A,#0x66
   \   0000F3   12....       LCALL   ?XSTACK_DISP0_8
   \   0000F6   AA82         MOV     R2,DPL
   \   0000F8   AB83         MOV     R3,DPH
   \   0000FA   12....       LCALL   ??memcpy?relay
   \   0000FD   7402         MOV     A,#0x2
   \   0000FF   12....       LCALL   ?DEALLOC_XSTACK8
    817            
    818            
    819            if(0==strcmp(method,"receive"))
                                ^
Warning[Pe167]: argument of type "unsigned char *" is incompatible with
          parameter of type "char const *"
   \   000102                ; Setup parameters for call to function strcmp
   \   000102   7C..         MOV     R4,#`?<Constant "receive">` & 0xff
   \   000104   7D..         MOV     R5,#(`?<Constant "receive">` >> 8) & 0xff
   \   000106   7464         MOV     A,#0x64
   \   000108   12....       LCALL   ?XSTACK_DISP0_8
   \   00010B   AA82         MOV     R2,DPL
   \   00010D   AB83         MOV     R3,DPH
   \   00010F   12....       LCALL   ??strcmp?relay
   \   000112   8A..         MOV     ?V0 + 4,R2
   \   000114   8B..         MOV     ?V0 + 5,R3
   \   000116   E5..         MOV     A,?V0 + 4
   \   000118   45..         ORL     A,?V0 + 5
   \   00011A   7067         JNZ     ??mqtt_rx_2
    820            {
    821              //          memcpy(MqttRecMsg,cmd,strlen(cmd));  
    822              //          osal_start_timerEx( SampleApp_TaskID, SAMPLEAPP_COOR_CHECK_MQTT_EVT,1000);
    823              //          //不知道啥原因，一旦发送消息触发SAMPLEAPP_COOR_CHECK_MQTT_EVT事件，似乎协调器就会死机无法继续发送消息至终端，按键事件也无法发送
    824              //          HalLcdWriteString((char*)MqttRecMsg, HAL_LCD_LINE_3);
    825              if(MqttRecMsg[0]=='\0')
   \   00011C   90....       MOV     DPTR,#MqttRecMsg
   \   00011F   E0           MOVX    A,@DPTR
   \   000120   703C         JNZ     ??mqtt_rx_3
    826              {
    827                memcpy(MqttRecMsg,cmd,strlen(cmd));  
                                                    ^
Warning[Pe167]: argument of type "unsigned char *" is incompatible with
          parameter of type "char const *"
   \   000122                ; Setup parameters for call to function memcpy
   \   000122                ; Setup parameters for call to function strlen
   \   000122   AA..         MOV     R2,?V0 + 0
   \   000124   AB..         MOV     R3,?V0 + 1
   \   000126   12....       LCALL   ??strlen?relay
   \   000129   8A..         MOV     ?V0 + 4,R2
   \   00012B   8B..         MOV     ?V0 + 5,R3
   \   00012D   78..         MOV     R0,#?V0 + 4
   \   00012F   12....       LCALL   ?PUSH_XSTACK_I_TWO
   \   000132   AC..         MOV     R4,?V0 + 0
   \   000134   AD..         MOV     R5,?V0 + 1
   \   000136   7A..         MOV     R2,#MqttRecMsg & 0xff
   \   000138   7B..         MOV     R3,#(MqttRecMsg >> 8) & 0xff
   \   00013A   12....       LCALL   ??memcpy?relay
   \   00013D   7402         MOV     A,#0x2
   \   00013F   12....       LCALL   ?DEALLOC_XSTACK8
    828                osal_start_timerEx( SampleApp_TaskID, SAMPLEAPP_COOR_CHECK_MQTT_EVT,10 );
   \   000142                ; Setup parameters for call to function osal_start_timerEx
   \   000142   7C0A         MOV     R4,#0xa
   \   000144   7D00         MOV     R5,#0x0
   \   000146   7A20         MOV     R2,#0x20
   \   000148   7B00         MOV     R3,#0x0
   \   00014A   90....       MOV     DPTR,#SampleApp_TaskID
   \   00014D   E0           MOVX    A,@DPTR
   \   00014E   F9           MOV     R1,A
   \   00014F   12....       LCALL   ??osal_start_timerEx?relay
   \   000152   E9           MOV     A,R1
    829                HalLcdWriteString((char*)MqttRecMsg, HAL_LCD_LINE_3);
   \   000153                ; Setup parameters for call to function HalLcdWriteString
   \   000153   7903         MOV     R1,#0x3
   \   000155   7A..         MOV     R2,#MqttRecMsg & 0xff
   \   000157   7B..         MOV     R3,#(MqttRecMsg >> 8) & 0xff
   \   000159   12....       LCALL   ??HalLcdWriteString?relay
   \   00015C   8025         SJMP    ??mqtt_rx_2
    830              }
    831              else{
    832                //osal_start_timerEx( SampleApp_TaskID, SAMPLEAPP_COOR_CHECK_MQTT_EVT,5 );
    833                //Response2mqtt("too many msg, hold on","201");
    834                sprintf(mqtt_message, "too many msg, hold on");
                               ^
Warning[Pe167]: argument of type "unsigned char *" is incompatible with
          parameter of type "char *"

    uint8 msg[100]={0};
          ^
"e:\imtht\Documents\Code\Zigbee\ZStack-2.5.1a\Projects\zstack\Samples\SampleApp\Source\SampleApp.c",812  Warning[Pe177]: 
          variable "msg" was declared but never referenced
   \                     ??mqtt_rx_3:
   \   00015E                ; Setup parameters for call to function sprintf
   \   00015E   7C..         MOV     R4,#`?<Constant "too many msg, hold on">` & 0xff
   \   000160   7D..         MOV     R5,#(`?<Constant "too many msg, hold on">` >> 8) & 0xff
   \   000162   7A..         MOV     R2,#mqtt_message & 0xff
   \   000164   7B..         MOV     R3,#(mqtt_message >> 8) & 0xff
   \   000166   12....       LCALL   ??sprintf?relay
    835                osal_start_timerEx( SampleApp_TaskID, SAMPLEAPP_COOR_SEND_MQTT_EVT,1 );
   \   000169                ; Setup parameters for call to function osal_start_timerEx
   \   000169   7C01         MOV     R4,#0x1
   \   00016B   7D00         MOV     R5,#0x0
   \   00016D   7A40         MOV     R2,#0x40
   \   00016F   7B00         MOV     R3,#0x0
   \   000171   90....       MOV     DPTR,#SampleApp_TaskID
   \   000174   E0           MOVX    A,@DPTR
   \   000175   F9           MOV     R1,A
   \   000176   12....       LCALL   ??osal_start_timerEx?relay
   \   000179   E9           MOV     A,R1
    836                HalLcdWriteString("too many msg", HAL_LCD_LINE_4);
   \   00017A                ; Setup parameters for call to function HalLcdWriteString
   \   00017A   7904         MOV     R1,#0x4
   \   00017C   7A..         MOV     R2,#`?<Constant "too many msg">` & 0xff
   \   00017E   7B..         MOV     R3,#(`?<Constant "too many msg">` >> 8) & 0xff
   \   000180   12....       LCALL   ??HalLcdWriteString?relay
    837              }
    838            }
    839            
    840            
    841            //HalLcdWriteString((char*)topic, HAL_LCD_LINE_1); //LCD显示
    842            //HalLcdWriteString((char*)msg, HAL_LCD_LINE_2); //LCD显示
    843            
    844          }
   \                     ??mqtt_rx_2:
   \   000183   92F0         MOV     B.0,C
   \   000185   75822C       MOV     DPL,#0x2c
   \   000188   758301       MOV     DPH,#0x1
   \   00018B   12....       LCALL   ?ADD_XSTACK_DISP0_16
   \   00018E   A2F0         MOV     C,B.0
   \   000190   7F06         MOV     R7,#0x6
   \   000192   02....       LJMP    ?BANKED_LEAVE_XDATA
    845          
    846          

   \                                 In  segment BANKED_CODE, align 1, keep-with-next
    847          void Response2mqtt(uint8* returnMsg,uint8* flow)
   \                     Response2mqtt:
    848          {
   \   000000   74F4         MOV     A,#-0xc
   \   000002   12....       LCALL   ?BANKED_ENTER_XDATA
   \   000005                ; Saved register size: 12
   \   000005                ; Auto size: 200
   \   000005   7438         MOV     A,#0x38
   \   000007   12....       LCALL   ?ALLOC_XSTACK8
   \   00000A   8A..         MOV     ?V0 + 0,R2
   \   00000C   8B..         MOV     ?V0 + 1,R3
   \   00000E   8C..         MOV     ?V0 + 2,R4
   \   000010   8D..         MOV     ?V0 + 3,R5
    849            uint8 message[200] = {0};
   \   000012   90....       MOV     DPTR,#`?<Constant {0}>_6`
   \   000015   C082         PUSH    DPL
   \   000017   C083         PUSH    DPH
   \   000019   85..82       MOV     DPL,?XSP + 0
   \   00001C   85..83       MOV     DPH,?XSP + 1
   \   00001F   AC82         MOV     R4,DPL
   \   000021   AD83         MOV     R5,DPH
   \   000023   D083         POP     DPH
   \   000025   D082         POP     DPL
   \   000027   74C8         MOV     A,#-0x38
   \   000029   12....       LCALL   ?MOVE_LONG8_XDATA_XDATA
    850            sprintf(message,"{\"msg\":\"%s\",\"flow\":%s}",returnMsg,flow); 
                           ^
Warning[Pe167]: argument of type "unsigned char *" is incompatible with
          parameter of type "char *"
   \   00002C                ; Setup parameters for call to function sprintf
   \   00002C   78..         MOV     R0,#?V0 + 2
   \   00002E   12....       LCALL   ?PUSH_XSTACK_I_TWO
   \   000031   78..         MOV     R0,#?V0 + 0
   \   000033   12....       LCALL   ?PUSH_XSTACK_I_TWO
   \   000036   7C..         MOV     R4,#`?<Constant "{\\"msg\\":\\"%s\\",\\"flow\\":%s}">` & 0xff
   \   000038   7D..         MOV     R5,#(`?<Constant "{\\"msg\\":\\"%s\\",\\"flow\\":%s}">` >> 8) & 0xff
   \   00003A   7404         MOV     A,#0x4
   \   00003C   12....       LCALL   ?XSTACK_DISP0_8
   \   00003F   AA82         MOV     R2,DPL
   \   000041   AB83         MOV     R3,DPH
   \   000043   12....       LCALL   ??sprintf?relay
   \   000046   7404         MOV     A,#0x4
   \   000048   12....       LCALL   ?DEALLOC_XSTACK8
    851                  printf(message);
                                ^
Warning[Pe167]: argument of type "unsigned char *" is incompatible with
          parameter of type "char const *"
   \   00004B                ; Setup parameters for call to function printf
   \   00004B   85..82       MOV     DPL,?XSP + 0
   \   00004E   85..83       MOV     DPH,?XSP + 1
   \   000051   AA82         MOV     R2,DPL
   \   000053   AB83         MOV     R3,DPH
   \   000055   12....       LCALL   ??printf?relay
    852                printf("\n");
   \   000058                ; Setup parameters for call to function printf
   \   000058   7A..         MOV     R2,#`?<Constant "\\n">` & 0xff
   \   00005A   7B..         MOV     R3,#(`?<Constant "\\n">` >> 8) & 0xff
   \   00005C   12....       LCALL   ??printf?relay
    853            //发布主题
    854            mqtt_publish_topic(topics_post,message );
                                      ^
Warning[Pe167]: argument of type "unsigned char *" is incompatible with
          parameter of type "char const *"

    mqtt_publish_topic(topics_post,message );
                                   ^
"e:\imtht\Documents\Code\Zigbee\ZStack-2.5.1a\Projects\zstack\Samples\SampleApp\Source\SampleApp.c",854  Warning[Pe167]: 
          argument of type "unsigned char *" is incompatible with parameter of
          type "char const *"
   \   00005F                ; Setup parameters for call to function mqtt_publish_topic
   \   00005F   85..82       MOV     DPL,?XSP + 0
   \   000062   85..83       MOV     DPH,?XSP + 1
   \   000065   AC82         MOV     R4,DPL
   \   000067   AD83         MOV     R5,DPH
   \   000069   7A..         MOV     R2,#topics_post & 0xff
   \   00006B   7B..         MOV     R3,#(topics_post >> 8) & 0xff
   \   00006D   12....       LCALL   ??mqtt_publish_topic?relay
    855            
    856          }
   \   000070   74C8         MOV     A,#-0x38
   \   000072   12....       LCALL   ?DEALLOC_XSTACK8
   \   000075   7F04         MOV     R7,#0x4
   \   000077   02....       LJMP    ?BANKED_LEAVE_XDATA
    857          

   \                                 In  segment BANKED_CODE, align 1, keep-with-next
    858          bool OneNet_publish_topic(const char *topic, const char *msg)
   \                     OneNet_publish_topic:
    859          { 
   \   000000   74F6         MOV     A,#-0xa
   \   000002   12....       LCALL   ?BANKED_ENTER_XDATA
   \   000005                ; Saved register size: 10
   \   000005                ; Auto size: 0
   \   000005   8A..         MOV     ?V0 + 0,R2
   \   000007   8B..         MOV     ?V0 + 1,R3
   \   000009   EC           MOV     A,R4
   \   00000A   FE           MOV     R6,A
   \   00000B   ED           MOV     A,R5
   \   00000C   FF           MOV     R7,A
    860            //uint8 buff[100]={0};
    861            
    862            //sprintf(buff, "topic:%s,msg:%s", topic, msg);
    863            
    864            /*  发布主题为"hello_topic_public"，消息为温度和湿度 */
    865            return mqtt_publish_topic(topic, msg);
   \   00000D                ; Setup parameters for call to function mqtt_publish_topic
   \   00000D   EE           MOV     A,R6
   \   00000E   FC           MOV     R4,A
   \   00000F   EF           MOV     A,R7
   \   000010   FD           MOV     R5,A
   \   000011   AA..         MOV     R2,?V0 + 0
   \   000013   AB..         MOV     R3,?V0 + 1
   \   000015   12....       LCALL   ??mqtt_publish_topic?relay
   \   000018   E4           CLR     A
   \   000019   33           RLC     A
   \   00001A   F9           MOV     R1,A
   \   00001B   7F02         MOV     R7,#0x2
   \   00001D   02....       LJMP    ?BANKED_LEAVE_XDATA
    866          }
    867          
    868          
    869          
    870          /*********************************************************************
    871          * @fn      SampleApp_CallBack
    872          *
    873          * @brief   Send data OTA.
    874          *
    875          * @param   port - UART port.
    876          * @param   event - the UART port event flag.
    877          *
    878          * @return  none
    879          */

   \                                 In  segment XDATA_Z, align 1, keep-with-next
    880          uint32 lastReadMs=0;
   \                     lastReadMs:
   \   000000                DS 4
   \   000004                REQUIRE __INIT_XDATA_Z

   \                                 In  segment BANKED_CODE, align 1, keep-with-next
    881          void SampleApp_CallBack(uint8 port, uint8 event)
   \                     SampleApp_CallBack:
    882          {
   \   000000   74F0         MOV     A,#-0x10
   \   000002   12....       LCALL   ?BANKED_ENTER_XDATA
   \   000005                ; Saved register size: 16
   \   000005                ; Auto size: 0
   \   000005   E9           MOV     A,R1
   \   000006   FF           MOV     R7,A
   \   000007   EA           MOV     A,R2
   \   000008   FE           MOV     R6,A
    883            (void)port;
    884            
    885            if(0==onenet_login_ok)
   \   000009   90....       MOV     DPTR,#onenet_login_ok
   \   00000C   E0           MOVX    A,@DPTR
   \   00000D   7027         JNZ     ??SampleApp_CallBack_0
    886            {
    887              HalUARTRead(SAMPLE_APP_PORT, SampleApp_RxBuf, SAMPLE_APP_RX_MAX);
   \   00000F                ; Setup parameters for call to function HalUARTRead
   \   00000F   7C2C         MOV     R4,#0x2c
   \   000011   7D01         MOV     R5,#0x1
   \   000013   7A..         MOV     R2,#SampleApp_RxBuf & 0xff
   \   000015   7B..         MOV     R3,#(SampleApp_RxBuf >> 8) & 0xff
   \   000017   7900         MOV     R1,#0x0
   \   000019   12....       LCALL   ??HalUARTRead?relay
    888              SampleApp_RxLen=0;
   \   00001C   90....       MOV     DPTR,#SampleApp_RxLen
   \   00001F   7400         MOV     A,#0x0
   \   000021   F0           MOVX    @DPTR,A
   \   000022   A3           INC     DPTR
   \   000023   7400         MOV     A,#0x0
   \   000025   F0           MOVX    @DPTR,A
    889              osal_memset(SampleApp_RxBuf, 0, SAMPLE_APP_RX_MAX);
   \   000026                ; Setup parameters for call to function osal_memset
   \   000026   7C2C         MOV     R4,#0x2c
   \   000028   7D01         MOV     R5,#0x1
   \   00002A   7900         MOV     R1,#0x0
   \   00002C   7A..         MOV     R2,#SampleApp_RxBuf & 0xff
   \   00002E   7B..         MOV     R3,#(SampleApp_RxBuf >> 8) & 0xff
   \   000030   12....       LCALL   ??osal_memset?relay
   \   000033   02....       LJMP    ??SampleApp_CallBack_1 & 0xFFFF
    890            }
    891            else if(1==onenet_login_ok)//onenet注册成功 0:未注册，1：注册中　2：注册成功
   \                     ??SampleApp_CallBack_0:
   \   000036   90....       MOV     DPTR,#onenet_login_ok
   \   000039   E0           MOVX    A,@DPTR
   \   00003A   6401         XRL     A,#0x1
   \   00003C   6003         JZ      $+5
   \   00003E   02....       LJMP    ??SampleApp_CallBack_2 & 0xFFFF
    892            {
    893              //一个一个字节读
    894              SampleApp_RxLen += HalUARTRead(SAMPLE_APP_PORT, SampleApp_RxBuf+SampleApp_RxLen, 4);
   \   000041                ; Setup parameters for call to function HalUARTRead
   \   000041   7C04         MOV     R4,#0x4
   \   000043   7D00         MOV     R5,#0x0
   \   000045   90....       MOV     DPTR,#SampleApp_RxLen
   \   000048   E0           MOVX    A,@DPTR
   \   000049   24..         ADD     A,#SampleApp_RxBuf & 0xff
   \   00004B   FA           MOV     R2,A
   \   00004C   A3           INC     DPTR
   \   00004D   E0           MOVX    A,@DPTR
   \   00004E   34..         ADDC    A,#(SampleApp_RxBuf >> 8) & 0xff
   \   000050   FB           MOV     R3,A
   \   000051   7900         MOV     R1,#0x0
   \   000053   12....       LCALL   ??HalUARTRead?relay
   \   000056   8A..         MOV     ?V0 + 0,R2
   \   000058   8B..         MOV     ?V0 + 1,R3
   \   00005A   A8..         MOV     R0,?V0 + 0
   \   00005C   A9..         MOV     R1,?V0 + 1
   \   00005E   90....       MOV     DPTR,#SampleApp_RxLen
   \   000061   E0           MOVX    A,@DPTR
   \   000062   28           ADD     A,R0
   \   000063   F0           MOVX    @DPTR,A
   \   000064   A3           INC     DPTR
   \   000065   E0           MOVX    A,@DPTR
   \   000066   39           ADDC    A,R1
   \   000067   F0           MOVX    @DPTR,A
    895              
    896              //判断是否是注册成功
    897              if(SampleApp_RxLen>=4)
   \   000068   90....       MOV     DPTR,#SampleApp_RxLen
   \   00006B   C3           CLR     C
   \   00006C   E0           MOVX    A,@DPTR
   \   00006D   9404         SUBB    A,#0x4
   \   00006F   A3           INC     DPTR
   \   000070   E0           MOVX    A,@DPTR
   \   000071   9400         SUBB    A,#0x0
   \   000073   4079         JC      ??SampleApp_CallBack_3
    898              {
    899                debug("rx len=%d(%x,%x,%x,%x)\r\n", SampleApp_RxLen,SampleApp_RxBuf[0],SampleApp_RxBuf[1],SampleApp_RxBuf[2],SampleApp_RxBuf[3]);
   \   000075                ; Setup parameters for call to function debug
   \   000075   90....       MOV     DPTR,#SampleApp_RxBuf + 3
   \   000078   E0           MOVX    A,@DPTR
   \   000079   F5..         MOV     ?V0 + 0,A
   \   00007B   75..00       MOV     ?V0 + 1,#0x0
   \   00007E   78..         MOV     R0,#?V0 + 0
   \   000080   12....       LCALL   ?PUSH_XSTACK_I_TWO
   \   000083   90....       MOV     DPTR,#SampleApp_RxBuf + 2
   \   000086   E0           MOVX    A,@DPTR
   \   000087   F5..         MOV     ?V0 + 0,A
   \   000089   75..00       MOV     ?V0 + 1,#0x0
   \   00008C   78..         MOV     R0,#?V0 + 0
   \   00008E   12....       LCALL   ?PUSH_XSTACK_I_TWO
   \   000091   90....       MOV     DPTR,#SampleApp_RxBuf + 1
   \   000094   E0           MOVX    A,@DPTR
   \   000095   F5..         MOV     ?V0 + 0,A
   \   000097   75..00       MOV     ?V0 + 1,#0x0
   \   00009A   78..         MOV     R0,#?V0 + 0
   \   00009C   12....       LCALL   ?PUSH_XSTACK_I_TWO
   \   00009F   90....       MOV     DPTR,#SampleApp_RxBuf
   \   0000A2   E0           MOVX    A,@DPTR
   \   0000A3   F5..         MOV     ?V0 + 0,A
   \   0000A5   75..00       MOV     ?V0 + 1,#0x0
   \   0000A8   78..         MOV     R0,#?V0 + 0
   \   0000AA   12....       LCALL   ?PUSH_XSTACK_I_TWO
   \   0000AD   90....       MOV     DPTR,#SampleApp_RxLen
   \   0000B0   12....       LCALL   ?PUSH_XSTACK8_X_TWO
   \   0000B3   7A..         MOV     R2,#`?<Constant "rx len=%d(%x,%x,%x,%x)\\r\\n">` & 0xff
   \   0000B5   7B..         MOV     R3,#(`?<Constant "rx len=%d(%x,%x,%x,%x)\\r\\n">` >> 8) & 0xff
   \   0000B7   12....       LCALL   ??debug?relay
   \   0000BA   740A         MOV     A,#0xa
   \   0000BC   12....       LCALL   ?DEALLOC_XSTACK8
    900                
    901                //等待接入响应
    902                if(MQTT_UnPacketRecv(SampleApp_RxBuf) == MQTT_PKT_CONNACK)
   \   0000BF                ; Setup parameters for call to function MQTT_UnPacketRecv
   \   0000BF   7A..         MOV     R2,#SampleApp_RxBuf & 0xff
   \   0000C1   7B..         MOV     R3,#(SampleApp_RxBuf >> 8) & 0xff
   \   0000C3   12....       LCALL   ??MQTT_UnPacketRecv?relay
   \   0000C6   E9           MOV     A,R1
   \   0000C7   6402         XRL     A,#0x2
   \   0000C9   7023         JNZ     ??SampleApp_CallBack_3
    903                {
    904                  if(0==MQTT_UnPacketConnectAck(SampleApp_RxBuf))
   \   0000CB                ; Setup parameters for call to function MQTT_UnPacketConnectAck
   \   0000CB   7A..         MOV     R2,#SampleApp_RxBuf & 0xff
   \   0000CD   7B..         MOV     R3,#(SampleApp_RxBuf >> 8) & 0xff
   \   0000CF   12....       LCALL   ??MQTT_UnPacketConnectAck?relay
   \   0000D2   E9           MOV     A,R1
   \   0000D3   7019         JNZ     ??SampleApp_CallBack_3
    905                  {
    906                    onenet_login_ok=2;//注册成功
   \   0000D5   90....       MOV     DPTR,#onenet_login_ok
   \   0000D8   7402         MOV     A,#0x2
   \   0000DA   F0           MOVX    @DPTR,A
    907                    SampleApp_RxLen=0;
   \   0000DB   90....       MOV     DPTR,#SampleApp_RxLen
   \   0000DE   7400         MOV     A,#0x0
   \   0000E0   F0           MOVX    @DPTR,A
   \   0000E1   A3           INC     DPTR
   \   0000E2   7400         MOV     A,#0x0
   \   0000E4   F0           MOVX    @DPTR,A
    908                    
    909                    //请求订阅主题
    910                    mqtt_subscribe_topic(g_mqtt_topics_set, 1);
                                                ^
Warning[Pe167]: argument of type "signed char **" is incompatible with
          parameter of type "signed char const **"

  static uint8 SampleApp_MsgID;
               ^
"e:\imtht\Documents\Code\Zigbee\ZStack-2.5.1a\Projects\zstack\Samples\SampleApp\Source\SampleApp.c",120  Warning[Pe177]: 
          variable "SampleApp_MsgID" was declared but never referenced

  static void SampleApp_Send_P2P_Message( void );
              ^
"e:\imtht\Documents\Code\Zigbee\ZStack-2.5.1a\Projects\zstack\Samples\SampleApp\Source\SampleApp.c",161  Warning[Pe177]: 
          function "SampleApp_Send_P2P_Message" was declared but never
          referenced

              sprintf(data,"%s,%d,%s,%d","switch1",P0_5,"switch2",P0_7);
              ^
"e:\imtht\Documents\Code\Zigbee\ZStack-2.5.1a\Projects\zstack\Samples\SampleApp\Source\SampleApp.c",724  Warning[Pa082]: 
          undefined behavior: the order of volatile accesses is undefined in
          this statement
   \   0000E5                ; Setup parameters for call to function mqtt_subscribe_topic
   \   0000E5   7901         MOV     R1,#0x1
   \   0000E7   7A..         MOV     R2,#g_mqtt_topics_set & 0xff
   \   0000E9   7B..         MOV     R3,#(g_mqtt_topics_set >> 8) & 0xff
   \   0000EB   12....       LCALL   ??mqtt_subscribe_topic?relay
    911                  }
    912                }
    913              }
    914              
    915              //数组满，清0
    916              if(SampleApp_RxLen>=SAMPLE_APP_RX_MAX)
   \                     ??SampleApp_CallBack_3:
   \   0000EE   90....       MOV     DPTR,#SampleApp_RxLen
   \   0000F1   C3           CLR     C
   \   0000F2   E0           MOVX    A,@DPTR
   \   0000F3   942C         SUBB    A,#0x2c
   \   0000F5   A3           INC     DPTR
   \   0000F6   E0           MOVX    A,@DPTR
   \   0000F7   9401         SUBB    A,#0x1
   \   0000F9   5003         JNC     $+5
   \   0000FB   02....       LJMP    ??SampleApp_CallBack_1 & 0xFFFF
    917              {
    918                SampleApp_RxLen=0;
   \   0000FE   90....       MOV     DPTR,#SampleApp_RxLen
   \   000101   7400         MOV     A,#0x0
   \   000103   F0           MOVX    @DPTR,A
   \   000104   A3           INC     DPTR
   \   000105   7400         MOV     A,#0x0
   \   000107   F0           MOVX    @DPTR,A
   \   000108   02....       LJMP    ??SampleApp_CallBack_1 & 0xFFFF
    919              }
    920            }
    921            else if(2==onenet_login_ok)
   \                     ??SampleApp_CallBack_2:
   \   00010B   90....       MOV     DPTR,#onenet_login_ok
   \   00010E   E0           MOVX    A,@DPTR
   \   00010F   6402         XRL     A,#0x2
   \   000111   6003         JZ      $+5
   \   000113   02....       LJMP    ??SampleApp_CallBack_1 & 0xFFFF
    922            {
    923              //如果是注册成功，读服务器的控制命令
    924              
    925              uint32 curMs=osal_GetSystemClock();
   \   000116                ; Setup parameters for call to function osal_GetSystemClock
   \   000116   12....       LCALL   ??osal_GetSystemClock?relay
   \   000119   8A..         MOV     ?V0 + 4,R2
   \   00011B   8B..         MOV     ?V0 + 5,R3
   \   00011D   8C..         MOV     ?V0 + 6,R4
   \   00011F   8D..         MOV     ?V0 + 7,R5
    926              
    927              if((curMs-lastReadMs)<1000) return;
   \   000121   85....       MOV     ?V0 + 0,?V0 + 4
   \   000124   85....       MOV     ?V0 + 1,?V0 + 5
   \   000127   85....       MOV     ?V0 + 2,?V0 + 6
   \   00012A   85....       MOV     ?V0 + 3,?V0 + 7
   \   00012D   90....       MOV     DPTR,#lastReadMs
   \   000130   78..         MOV     R0,#?V0 + 0
   \   000132   12....       LCALL   ?L_SUB_X
   \   000135   90....       MOV     DPTR,#__Constant_3e8
   \   000138   78..         MOV     R0,#?V0 + 0
   \   00013A   12....       LCALL   ?UL_GE_X
   \   00013D   5070         JNC     ??SampleApp_CallBack_1
    928              
    929              lastReadMs=curMs;
   \   00013F   90....       MOV     DPTR,#lastReadMs
   \   000142   78..         MOV     R0,#?V0 + 4
   \   000144   12....       LCALL   ?L_MOV_TO_X
    930              SampleApp_RxLen=0;
   \   000147   90....       MOV     DPTR,#SampleApp_RxLen
   \   00014A   7400         MOV     A,#0x0
   \   00014C   F0           MOVX    @DPTR,A
   \   00014D   A3           INC     DPTR
   \   00014E   7400         MOV     A,#0x0
   \   000150   F0           MOVX    @DPTR,A
    931              osal_memset(SampleApp_RxBuf, 0, SAMPLE_APP_RX_MAX+1);
   \   000151                ; Setup parameters for call to function osal_memset
   \   000151   7C2D         MOV     R4,#0x2d
   \   000153   7D01         MOV     R5,#0x1
   \   000155   7900         MOV     R1,#0x0
   \   000157   7A..         MOV     R2,#SampleApp_RxBuf & 0xff
   \   000159   7B..         MOV     R3,#(SampleApp_RxBuf >> 8) & 0xff
   \   00015B   12....       LCALL   ??osal_memset?relay
    932              SampleApp_RxLen = HalUARTRead(SAMPLE_APP_PORT, SampleApp_RxBuf, SAMPLE_APP_RX_MAX);
   \   00015E                ; Setup parameters for call to function HalUARTRead
   \   00015E   7C2C         MOV     R4,#0x2c
   \   000160   7D01         MOV     R5,#0x1
   \   000162   7A..         MOV     R2,#SampleApp_RxBuf & 0xff
   \   000164   7B..         MOV     R3,#(SampleApp_RxBuf >> 8) & 0xff
   \   000166   7900         MOV     R1,#0x0
   \   000168   12....       LCALL   ??HalUARTRead?relay
   \   00016B   90....       MOV     DPTR,#SampleApp_RxLen
   \   00016E   EA           MOV     A,R2
   \   00016F   F0           MOVX    @DPTR,A
   \   000170   A3           INC     DPTR
   \   000171   EB           MOV     A,R3
   \   000172   F0           MOVX    @DPTR,A
    933              
    934              
    935              
    936              if(SampleApp_RxLen>0)
   \   000173   90....       MOV     DPTR,#SampleApp_RxLen
   \   000176   E0           MOVX    A,@DPTR
   \   000177   F8           MOV     R0,A
   \   000178   A3           INC     DPTR
   \   000179   E0           MOVX    A,@DPTR
   \   00017A   F9           MOV     R1,A
   \   00017B   E8           MOV     A,R0
   \   00017C   49           ORL     A,R1
   \   00017D   6030         JZ      ??SampleApp_CallBack_1
    937              {
    938                debug("rx len=%d.\r\n", SampleApp_RxLen);
   \   00017F                ; Setup parameters for call to function debug
   \   00017F   90....       MOV     DPTR,#SampleApp_RxLen
   \   000182   12....       LCALL   ?PUSH_XSTACK8_X_TWO
   \   000185   7A..         MOV     R2,#`?<Constant "rx len=%d.\\r\\n">` & 0xff
   \   000187   7B..         MOV     R3,#(`?<Constant "rx len=%d.\\r\\n">` >> 8) & 0xff
   \   000189   12....       LCALL   ??debug?relay
   \   00018C   7402         MOV     A,#0x2
   \   00018E   12....       LCALL   ?DEALLOC_XSTACK8
    939                
    940                OneNet_RevPro(SampleApp_RxBuf);// /sys/a1VZAPhhRWF/zigbee-coor/thing/service/property/set {"method":...}
   \   000191                ; Setup parameters for call to function OneNet_RevPro
   \   000191   7A..         MOV     R2,#SampleApp_RxBuf & 0xff
   \   000193   7B..         MOV     R3,#(SampleApp_RxBuf >> 8) & 0xff
   \   000195   12....       LCALL   ??OneNet_RevPro?relay
    941                SampleApp_RxLen=0;
   \   000198   90....       MOV     DPTR,#SampleApp_RxLen
   \   00019B   7400         MOV     A,#0x0
   \   00019D   F0           MOVX    @DPTR,A
   \   00019E   A3           INC     DPTR
   \   00019F   7400         MOV     A,#0x0
   \   0001A1   F0           MOVX    @DPTR,A
    942                osal_memset(SampleApp_RxBuf, 0, SAMPLE_APP_RX_MAX+1);
   \   0001A2                ; Setup parameters for call to function osal_memset
   \   0001A2   7C2D         MOV     R4,#0x2d
   \   0001A4   7D01         MOV     R5,#0x1
   \   0001A6   7900         MOV     R1,#0x0
   \   0001A8   7A..         MOV     R2,#SampleApp_RxBuf & 0xff
   \   0001AA   7B..         MOV     R3,#(SampleApp_RxBuf >> 8) & 0xff
   \   0001AC   12....       LCALL   ??osal_memset?relay
    943              }
    944            }
    945            
    946          }
   \                     ??SampleApp_CallBack_1:
   \   0001AF   7F08         MOV     R7,#0x8
   \   0001B1   02....       LJMP    ?BANKED_LEAVE_XDATA
    947          
    948          #else
    949          
    950          /*********************************************************************
    951          * @fn      SampleApp_Send_P2P_Message
    952          *
    953          * @brief   point to point.
    954          *
    955          * @param   none
    956          *
    957          * @return  none
    958          */
    959          void SampleApp_Send_P2P_Message( void )
    960          {
    961            uint8 str[5]={0};
    962            uint8 strTemp[20]={0};
    963            int len=0;
    964            
    965            DHT11();             //获取温湿度
    966            
    967            str[0] = wendu;//温度
    968            str[1] = shidu;//湿度
    969            len=2;
    970            
    971            sprintf(strTemp, "T&H:%d %d", str[0],str[1]);
    972            HalLcdWriteString(strTemp, HAL_LCD_LINE_3); //LCD显示
    973            
    974            HalUARTWrite(0, strTemp, osal_strlen(strTemp));           //串口输出提示信息
    975            HalUARTWrite(0, "\r\n",2);
    976            
    977            //无线发送到协调器
    978            if ( AF_DataRequest( &SampleApp_P2P_DstAddr, &SampleApp_epDesc,
    979                                SAMPLEAPP_P2P_CLUSTERID,
    980                                len,
    981                                str,
    982                                &SampleApp_MsgID,
    983                                AF_DISCV_ROUTE,
    984                                AF_DEFAULT_RADIUS ) == afStatus_SUCCESS )
    985            {
    986            }
    987            else
    988            {
    989              // Error occurred in request to send.
    990            }
    991          }
    992          
    993          void SampleApp_CallBack(uint8 port, uint8 event)
    994          {
    995            (void)port;
    996            
    997            HalUARTRead(SAMPLE_APP_PORT, SampleApp_RxBuf, 1);
    998            
    999          }
   1000          
   1001          
   1002          #endif
   1003          
   1004          
   1005          //调试信息输出

   \                                 In  segment BANKED_CODE, align 1, keep-with-next
   1006          void debug(uint8 * msg, ...)
   \                     debug:
   1007          {
   \   000000                ; Saved register size: 0
   \   000000                ; Auto size: 0
   1008          #if 0
   1009            uint8 len=0;
   1010            char info[100] = {0};
   1011            va_list args;
   1012            
   1013            if(msg==NULL) return;
   1014            
   1015            va_start(args, msg);
   1016            vsprintf(info, (const char*)msg, args);
   1017            va_end(args);
   1018            
   1019            len=osal_strlen((char *)info);
   1020            if(len==0) return;
   1021            
   1022            
   1023            HalUARTWrite(0,info, len);//串口0发送
   1024          #endif
   1025          }
   \   000000   02....       LJMP    ?BRET
   1026          

   \                                 In  segment BANKED_CODE, align 1, keep-with-next
   1027          void SampleApp_getIEEEAddr(uint8* IEEEAddr)//length of IEEEAddr should be Z_EXTADDR_LEN*2
   \                     SampleApp_getIEEEAddr:
   1028          {
   \   000000   74F4         MOV     A,#-0xc
   \   000002   12....       LCALL   ?BANKED_ENTER_XDATA
   \   000005                ; Saved register size: 12
   \   000005                ; Auto size: 0
   1029            
   1030            uint8 i;
   1031            uint8 *xad;
   1032            //uint8 lcd_buf[Z_EXTADDR_LEN*2+1];
   1033            
   1034            // Display the extended address.
   1035            xad = aExtendedAddress + Z_EXTADDR_LEN - 1;
   \   000005   78..         MOV     R0,#(aExtendedAddress + 7) & 0xff
   \   000007   79..         MOV     R1,#((aExtendedAddress + 7) >> 8) & 0xff
   1036            
   1037            for (i = 0; i < Z_EXTADDR_LEN*2; xad--)
   \   000009   7E00         MOV     R6,#0x0
   \                     ??SampleApp_getIEEEAddr_0:
   \   00000B   EE           MOV     A,R6
   \   00000C   C3           CLR     C
   \   00000D   9410         SUBB    A,#0x10
   \   00000F   5077         JNC     ??SampleApp_getIEEEAddr_1
   1038            {
   1039              uint8 ch;
   1040              ch = (*xad >> 4) & 0x0F;
   \   000011   8882         MOV     DPL,R0
   \   000013   8983         MOV     DPH,R1
   \   000015   E0           MOVX    A,@DPTR
   \   000016   C4           SWAP    A
   \   000017   540F         ANL     A,#0xf
   \   000019   FF           MOV     R7,A
   1041              IEEEAddr[i++] = ch + (( ch < 10 ) ? '0' : '7');
   \   00001A   8E..         MOV     ?V0 + 2,R6
   \   00001C   7401         MOV     A,#0x1
   \   00001E   25..         ADD     A,?V0 + 2
   \   000020   FE           MOV     R6,A
   \   000021   EF           MOV     A,R7
   \   000022   C3           CLR     C
   \   000023   940A         SUBB    A,#0xa
   \   000025   5006         JNC     ??SampleApp_getIEEEAddr_2
   \   000027   7C30         MOV     R4,#0x30
   \   000029   7D00         MOV     R5,#0x0
   \   00002B   8004         SJMP    ??SampleApp_getIEEEAddr_3
   \                     ??SampleApp_getIEEEAddr_2:
   \   00002D   7C37         MOV     R4,#0x37
   \   00002F   7D00         MOV     R5,#0x0
   \                     ??SampleApp_getIEEEAddr_3:
   \   000031   EC           MOV     A,R4
   \   000032   2F           ADD     A,R7
   \   000033   C0E0         PUSH    A
   \   000035   85....       MOV     ?V0 + 0,?V0 + 2
   \   000038   75..00       MOV     ?V0 + 1,#0x0
   \   00003B   EA           MOV     A,R2
   \   00003C   25..         ADD     A,?V0 + 0
   \   00003E   F582         MOV     DPL,A
   \   000040   EB           MOV     A,R3
   \   000041   35..         ADDC    A,?V0 + 1
   \   000043   F583         MOV     DPH,A
   \   000045   D0E0         POP     A
   \   000047   F0           MOVX    @DPTR,A
   1042              ch = *xad & 0x0F;
   \   000048   8882         MOV     DPL,R0
   \   00004A   8983         MOV     DPH,R1
   \   00004C   E0           MOVX    A,@DPTR
   \   00004D   540F         ANL     A,#0xf
   \   00004F   FF           MOV     R7,A
   1043              IEEEAddr[i++] = ch + (( ch < 10 ) ? '0' : '7');
   \   000050   8E..         MOV     ?V0 + 3,R6
   \   000052   7401         MOV     A,#0x1
   \   000054   25..         ADD     A,?V0 + 3
   \   000056   FE           MOV     R6,A
   \   000057   EF           MOV     A,R7
   \   000058   C3           CLR     C
   \   000059   940A         SUBB    A,#0xa
   \   00005B   5006         JNC     ??SampleApp_getIEEEAddr_4
   \   00005D   7C30         MOV     R4,#0x30
   \   00005F   7D00         MOV     R5,#0x0
   \   000061   8004         SJMP    ??SampleApp_getIEEEAddr_5
   \                     ??SampleApp_getIEEEAddr_4:
   \   000063   7C37         MOV     R4,#0x37
   \   000065   7D00         MOV     R5,#0x0
   \                     ??SampleApp_getIEEEAddr_5:
   \   000067   EC           MOV     A,R4
   \   000068   2F           ADD     A,R7
   \   000069   C0E0         PUSH    A
   \   00006B   85....       MOV     ?V0 + 0,?V0 + 3
   \   00006E   75..00       MOV     ?V0 + 1,#0x0
   \   000071   EA           MOV     A,R2
   \   000072   25..         ADD     A,?V0 + 0
   \   000074   F582         MOV     DPL,A
   \   000076   EB           MOV     A,R3
   \   000077   35..         ADDC    A,?V0 + 1
   \   000079   F583         MOV     DPH,A
   \   00007B   D0E0         POP     A
   \   00007D   F0           MOVX    @DPTR,A
   1044            }
   \   00007E   E8           MOV     A,R0
   \   00007F   24FF         ADD     A,#-0x1
   \   000081   F8           MOV     R0,A
   \   000082   E9           MOV     A,R1
   \   000083   34FF         ADDC    A,#-0x1
   \   000085   F9           MOV     R1,A
   \   000086   8083         SJMP    ??SampleApp_getIEEEAddr_0
   1045            IEEEAddr[Z_EXTADDR_LEN*2] = '\0';
   \                     ??SampleApp_getIEEEAddr_1:
   \   000088   EA           MOV     A,R2
   \   000089   2410         ADD     A,#0x10
   \   00008B   F582         MOV     DPL,A
   \   00008D   EB           MOV     A,R3
   \   00008E   3400         ADDC    A,#0x0
   \   000090   F583         MOV     DPH,A
   \   000092   7400         MOV     A,#0x0
   \   000094   F0           MOVX    @DPTR,A
   1046          }
   \   000095   7F04         MOV     R7,#0x4
   \   000097   02....       LJMP    ?BANKED_LEAVE_XDATA
   1047          

   \                                 In  segment BANKED_CODE, align 1, keep-with-next
   1048          int SampleApp_SendPointToPointMessage(uint16 ReceiveAddr,uint16 DataId,uint8* SendData,uint16 Lens )//ReceiveAddr为接受设备的地址，DataId为数据识别码，4位16进制码，Lens仅写SendData长度即可
   \                     SampleApp_SendPointToPointMessage:
   1049          {
   \   000000   74F0         MOV     A,#-0x10
   \   000002   12....       LCALL   ?BANKED_ENTER_XDATA
   \   000005                ; Saved register size: 16
   \   000005                ; Auto size: 200
   \   000005   7438         MOV     A,#0x38
   \   000007   12....       LCALL   ?ALLOC_XSTACK8
   \   00000A   8A..         MOV     ?V0 + 0,R2
   \   00000C   8B..         MOV     ?V0 + 1,R3
   \   00000E   8C..         MOV     ?V0 + 6,R4
   \   000010   8D..         MOV     ?V0 + 7,R5
   \   000012   74D8         MOV     A,#-0x28
   \   000014   12....       LCALL   ?XSTACK_DISP0_8
   \   000017   E0           MOVX    A,@DPTR
   \   000018   F5..         MOV     ?V0 + 4,A
   \   00001A   A3           INC     DPTR
   \   00001B   E0           MOVX    A,@DPTR
   \   00001C   F5..         MOV     ?V0 + 5,A
   \   00001E   74DA         MOV     A,#-0x26
   \   000020   12....       LCALL   ?XSTACK_DISP0_8
   \   000023   E0           MOVX    A,@DPTR
   \   000024   FE           MOV     R6,A
   \   000025   A3           INC     DPTR
   \   000026   E0           MOVX    A,@DPTR
   \   000027   FF           MOV     R7,A
   1050            //uint8 data[10]={'0','1','2','3','4','5','6','7','8','9'};//定义发送内容
   1051            //uint8 data[10]="0123456789";//上述方式二选一 
   1052            SampleApp_P2P_DstAddr.addr.shortAddr = ReceiveAddr;
   \   000028   90....       MOV     DPTR,#SampleApp_P2P_DstAddr
   \   00002B   E5..         MOV     A,?V0 + 0
   \   00002D   F0           MOVX    @DPTR,A
   \   00002E   A3           INC     DPTR
   \   00002F   E5..         MOV     A,?V0 + 1
   \   000031   F0           MOVX    @DPTR,A
   1053            uint8 FinalSendData[200]={0};
   \   000032   90....       MOV     DPTR,#`?<Constant {0}>_7`
   \   000035   C082         PUSH    DPL
   \   000037   C083         PUSH    DPH
   \   000039   85..82       MOV     DPL,?XSP + 0
   \   00003C   85..83       MOV     DPH,?XSP + 1
   \   00003F   AC82         MOV     R4,DPL
   \   000041   AD83         MOV     R5,DPH
   \   000043   D083         POP     DPH
   \   000045   D082         POP     DPL
   \   000047   74C8         MOV     A,#-0x38
   \   000049   12....       LCALL   ?MOVE_LONG8_XDATA_XDATA
   1054            sprintf((char*)FinalSendData,"%4x%4d%s",DataId,Lens+8,(char*)SendData);
   \   00004C                ; Setup parameters for call to function sprintf
   \   00004C   78..         MOV     R0,#?V0 + 4
   \   00004E   12....       LCALL   ?PUSH_XSTACK_I_TWO
   \   000051   EE           MOV     A,R6
   \   000052   2408         ADD     A,#0x8
   \   000054   F5..         MOV     ?V0 + 2,A
   \   000056   EF           MOV     A,R7
   \   000057   3400         ADDC    A,#0x0
   \   000059   F5..         MOV     ?V0 + 3,A
   \   00005B   78..         MOV     R0,#?V0 + 2
   \   00005D   12....       LCALL   ?PUSH_XSTACK_I_TWO
   \   000060   78..         MOV     R0,#?V0 + 6
   \   000062   12....       LCALL   ?PUSH_XSTACK_I_TWO
   \   000065   7C..         MOV     R4,#`?<Constant "%4x%4d%s">` & 0xff
   \   000067   7D..         MOV     R5,#(`?<Constant "%4x%4d%s">` >> 8) & 0xff
   \   000069   7406         MOV     A,#0x6
   \   00006B   12....       LCALL   ?XSTACK_DISP0_8
   \   00006E   AA82         MOV     R2,DPL
   \   000070   AB83         MOV     R3,DPH
   \   000072   12....       LCALL   ??sprintf?relay
   \   000075   7406         MOV     A,#0x6
   \   000077   12....       LCALL   ?DEALLOC_XSTACK8
   1055            printf("FinalSendData:%s\n",FinalSendData);
   \   00007A                ; Setup parameters for call to function printf
   \   00007A   85..82       MOV     DPL,?XSP + 0
   \   00007D   85..83       MOV     DPH,?XSP + 1
   \   000080   8582..       MOV     ?V0 + 2,DPL
   \   000083   8583..       MOV     ?V0 + 3,DPH
   \   000086   78..         MOV     R0,#?V0 + 2
   \   000088   12....       LCALL   ?PUSH_XSTACK_I_TWO
   \   00008B   7A..         MOV     R2,#`?<Constant "FinalSendData:%s\\n">` & 0xff
   \   00008D   7B..         MOV     R3,#(`?<Constant "FinalSendData:%s\\n">` >> 8) & 0xff
   \   00008F   12....       LCALL   ??printf?relay
   \   000092   7402         MOV     A,#0x2
   \   000094   12....       LCALL   ?DEALLOC_XSTACK8
   1056            int result = AF_DataRequest(&SampleApp_P2P_DstAddr,&SampleApp_epDesc,
   1057                                        SAMPLEAPP_P2P_CLUSTERID,
   1058                                        Lens+8,
   1059                                        FinalSendData,
   1060                                        &SampleApp_TransID,
   1061                                        AF_DISCV_ROUTE,
   1062                                        AF_DEFAULT_RADIUS);
   \   000097                ; Setup parameters for call to function AF_DataRequest
   \   000097   75..1E       MOV     ?V0 + 2,#0x1e
   \   00009A   78..         MOV     R0,#?V0 + 2
   \   00009C   12....       LCALL   ?PUSH_XSTACK_I_ONE
   \   00009F   75....       MOV     ?V0 + 2,#SampleApp_TransID & 0xff
   \   0000A2   75....       MOV     ?V0 + 3,#(SampleApp_TransID >> 8) & 0xff
   \   0000A5   78..         MOV     R0,#?V0 + 2
   \   0000A7   12....       LCALL   ?PUSH_XSTACK_I_TWO
   \   0000AA   7403         MOV     A,#0x3
   \   0000AC   12....       LCALL   ?XSTACK_DISP0_8
   \   0000AF   8582..       MOV     ?V0 + 2,DPL
   \   0000B2   8583..       MOV     ?V0 + 3,DPH
   \   0000B5   78..         MOV     R0,#?V0 + 2
   \   0000B7   12....       LCALL   ?PUSH_XSTACK_I_TWO
   \   0000BA   EE           MOV     A,R6
   \   0000BB   2408         ADD     A,#0x8
   \   0000BD   F5..         MOV     ?V0 + 2,A
   \   0000BF   EF           MOV     A,R7
   \   0000C0   3400         ADDC    A,#0x0
   \   0000C2   F5..         MOV     ?V0 + 3,A
   \   0000C4   78..         MOV     R0,#?V0 + 2
   \   0000C6   12....       LCALL   ?PUSH_XSTACK_I_TWO
   \   0000C9   75..01       MOV     ?V0 + 2,#0x1
   \   0000CC   75..00       MOV     ?V0 + 3,#0x0
   \   0000CF   78..         MOV     R0,#?V0 + 2
   \   0000D1   12....       LCALL   ?PUSH_XSTACK_I_TWO
   \   0000D4   7920         MOV     R1,#0x20
   \   0000D6   7C..         MOV     R4,#SampleApp_epDesc & 0xff
   \   0000D8   7D..         MOV     R5,#(SampleApp_epDesc >> 8) & 0xff
   \   0000DA   7A..         MOV     R2,#SampleApp_P2P_DstAddr & 0xff
   \   0000DC   7B..         MOV     R3,#(SampleApp_P2P_DstAddr >> 8) & 0xff
   \   0000DE   12....       LCALL   ??AF_DataRequest?relay
   \   0000E1   7409         MOV     A,#0x9
   \   0000E3   12....       LCALL   ?DEALLOC_XSTACK8
   \   0000E6   E9           MOV     A,R1
   \   0000E7   F5..         MOV     ?V0 + 2,A
   \   0000E9   75..00       MOV     ?V0 + 3,#0x0
   1063            if(result == afStatus_SUCCESS)
   \   0000EC   E5..         MOV     A,?V0 + 2
   \   0000EE   45..         ORL     A,?V0 + 3
   \   0000F0   7006         JNZ     ??SampleApp_SendPointToPointMessage_0
   1064            {
   1065              return 0;
   \   0000F2   7A00         MOV     R2,#0x0
   \   0000F4   7B00         MOV     R3,#0x0
   \   0000F6   8015         SJMP    ??SampleApp_SendPointToPointMessage_1
   1066            }
   1067            else
   1068            {
   1069              printf("%d",result);
   \                     ??SampleApp_SendPointToPointMessage_0:
   \   0000F8                ; Setup parameters for call to function printf
   \   0000F8   78..         MOV     R0,#?V0 + 2
   \   0000FA   12....       LCALL   ?PUSH_XSTACK_I_TWO
   \   0000FD   7A..         MOV     R2,#`?<Constant "%d">` & 0xff
   \   0000FF   7B..         MOV     R3,#(`?<Constant "%d">` >> 8) & 0xff
   \   000101   12....       LCALL   ??printf?relay
   \   000104   7402         MOV     A,#0x2
   \   000106   12....       LCALL   ?DEALLOC_XSTACK8
   1070              return result;
   \   000109   AA..         MOV     R2,?V0 + 2
   \   00010B   AB..         MOV     R3,?V0 + 3
   \                     ??SampleApp_SendPointToPointMessage_1:
   \   00010D   74C8         MOV     A,#-0x38
   \   00010F   12....       LCALL   ?DEALLOC_XSTACK8
   \   000112   7F08         MOV     R7,#0x8
   \   000114   02....       LJMP    ?BANKED_LEAVE_XDATA
   1071              // Error occurred in request to send.
   1072            }
   1073          }

   \                                 In  segment XDATA_ID, align 1, keep-with-next
   \                     `?<Initializer for SampleApp_epDesc>`:
   \   000000   0B           DB 11
   \   000001   ....         DW SampleApp_TaskID
   \   000003   ....         DW SampleApp_SimpleDesc
   \   000005   00           DB 0

   \                                 In  segment XDATA_ID, align 1, keep-with-next
   \                     `?<Initializer for DevicesIEEEAddr>`:
   \   000000   30303132     DB "00124B0006F7E953"
   \            34423030
   \            30364637
   \            45393533
   \            00      
   \   000011   30303132     DB "00124B0006F78A1F"
   \            34423030
   \            30364637
   \            38413146
   \            00      
   \   000022   30303132     DB "00124B0006F7EAFD"
   \            34423030
   \            30364637
   \            45414644
   \            00      
   \   000033   30303132     DB "00124B001FBE1D86"
   \            34423030
   \            31464245
   \            31443836
   \            00      

   \                                 In  segment XDATA_ID, align 1, keep-with-next
   \                     `?<Initializer for DevicesShortAddr>`:
   \   000000   FFFF         DW 65535
   \   000002   FFFF         DW 65535
   \   000004   FFFF         DW 65535
   \   000006   FFFF         DW 65535

   \                                 In  segment XDATA_ID, align 1, keep-with-next
   \                     `?<Initializer for NwkAddr>`:
   \   000000   FFFF         DW 65535

   \                                 In  segment BANK_RELAYS, align 1
   \                     ??SampleApp_Init?relay:
   \   000000   12....       LCALL   ?BDISPATCH
   \   000003   ......       DC24    SampleApp_Init

   \                                 In  segment BANK_RELAYS, align 1
   \                     ??SampleApp_HandleKeys?relay:
   \   000000   12....       LCALL   ?BDISPATCH
   \   000003   ......       DC24    SampleApp_HandleKeys

   \                                 In  segment BANK_RELAYS, align 1
   \                     ??SampleApp_ProcessEvent?relay:
   \   000000   12....       LCALL   ?BDISPATCH
   \   000003   ......       DC24    SampleApp_ProcessEvent

   \                                 In  segment BANK_RELAYS, align 1
   \                     ??SampleApp_ProcessMSGCmd?relay:
   \   000000   12....       LCALL   ?BDISPATCH
   \   000003   ......       DC24    SampleApp_ProcessMSGCmd

   \                                 In  segment BANK_RELAYS, align 1
   \                     ??ESP8266_SendData?relay:
   \   000000   12....       LCALL   ?BDISPATCH
   \   000003   ......       DC24    ESP8266_SendData

   \                                 In  segment BANK_RELAYS, align 1
   \                     ??mqtt_rx?relay:
   \   000000   12....       LCALL   ?BDISPATCH
   \   000003   ......       DC24    mqtt_rx

   \                                 In  segment BANK_RELAYS, align 1
   \                     ??Response2mqtt?relay:
   \   000000   12....       LCALL   ?BDISPATCH
   \   000003   ......       DC24    Response2mqtt

   \                                 In  segment BANK_RELAYS, align 1
   \                     ??OneNet_publish_topic?relay:
   \   000000   12....       LCALL   ?BDISPATCH
   \   000003   ......       DC24    OneNet_publish_topic

   \                                 In  segment BANK_RELAYS, align 1
   \                     ??SampleApp_CallBack?relay:
   \   000000   12....       LCALL   ?BDISPATCH
   \   000003   ......       DC24    SampleApp_CallBack

   \                                 In  segment BANK_RELAYS, align 1
   \                     ??debug?relay:
   \   000000   12....       LCALL   ?BDISPATCH
   \   000003   ......       DC24    debug

   \                                 In  segment BANK_RELAYS, align 1
   \                     ??SampleApp_getIEEEAddr?relay:
   \   000000   12....       LCALL   ?BDISPATCH
   \   000003   ......       DC24    SampleApp_getIEEEAddr

   \                                 In  segment BANK_RELAYS, align 1
   \                     ??SampleApp_SendPointToPointMessage?relay:
   \   000000   12....       LCALL   ?BDISPATCH
   \   000003   ......       DC24    SampleApp_SendPointToPointMessage

   \                                 In  segment XDATA_ROM_C, align 1
   \                     `?<Constant "/a1xaMw4YerO/device/u...">`:
   \   000000   2F613178     DB "/a1xaMw4YerO/device/user/transfer"
   \            614D7734
   \            5965724F
   \            2F646576
   \            6963652F
   \            75736572
   \            2F747261
   \            6E736665
   \            7200    

   \                                 In  segment XDATA_ROM_C, align 1
   \                     `?<Constant "/a1xaMw4YerO/device/u...">_1`:
   \   000000   2F613178     DB "/a1xaMw4YerO/device/user/receive"
   \            614D7734
   \            5965724F
   \            2F646576
   \            6963652F
   \            75736572
   \            2F726563
   \            65697665
   \            00      

   \                                 In  segment XDATA_ROM_C, align 1
   \                     `?<Constant "Group 1">`:
   \   000000   47726F75     DB "Group 1"
   \            70203100

   \                                 In  segment XDATA_ROM_C, align 1
   \                     `?<Constant "SampleApp">`:
   \   000000   53616D70     DB "SampleApp"
   \            6C654170
   \            7000    

   \                                 In  segment XDATA_ROM_C, align 1
   \                     `?<Constant "1002 msg">`:
   \   000000   31303032     DB "1002 msg"
   \            206D7367
   \            00      

   \                                 In  segment XDATA_ROM_C, align 1
   \                     `?<Constant "1004 msg">`:
   \   000000   31303034     DB "1004 msg"
   \            206D7367
   \            00      

   \                                 In  segment XDATA_ROM_C, align 1
   \                     `?<Constant "get coord">`:
   \   000000   67657420     DB "get coord"
   \            636F6F72
   \            6400    

   \                                 In  segment XDATA_ROM_C, align 1
   \                     `?<Constant "lost coord">`:
   \   000000   6C6F7374     DB "lost coord"
   \            20636F6F
   \            726400  

   \                                 In  segment XDATA_ROM_C, align 1
   \                     `?<Constant "Coord Linked">`:
   \   000000   436F6F72     DB "Coord Linked"
   \            64204C69
   \            6E6B6564
   \            00      

   \                                 In  segment XDATA_ROM_C, align 1
   \                     `?<Constant {0}>`:
   \   000000   00           DB 0
   \   000001   00000000     DB 0, 0, 0, 0, 0, 0, 0, 0
   \            00000000
   \   000009   00000000     DB 0, 0, 0, 0, 0, 0, 0, 0
   \            00000000
   \   000011   00000000     DB 0, 0, 0, 0, 0, 0, 0, 0
   \            00000000
   \   000019   00000000     DB 0, 0, 0, 0, 0, 0, 0, 0
   \            00000000
   \   000021   00000000     DB 0, 0, 0, 0, 0, 0, 0
   \            000000  

   \                                 In  segment XDATA_ROM_C, align 1
   \                     `?<Constant {0}>_1`:
   \   000000   00           DB 0
   \   000001   00000000     DB 0, 0, 0, 0, 0, 0, 0, 0
   \            00000000
   \   000009   00000000     DB 0, 0, 0, 0, 0, 0, 0, 0
   \            00000000
   \   000011   00000000     DB 0, 0, 0, 0, 0, 0, 0, 0
   \            00000000
   \   000019   00000000     DB 0, 0, 0, 0, 0, 0, 0, 0
   \            00000000
   \   000021   00000000     DB 0, 0, 0, 0, 0, 0, 0, 0
   \            00000000
   \   000029   00000000     DB 0, 0, 0, 0, 0, 0, 0, 0
   \            00000000
   \   000031   00           DB 0

   \                                 In  segment XDATA_ROM_C, align 1
   \                     `?<Constant "MqttRecMsg:%s\\n">`:
   \   000000   4D717474     DB "MqttRecMsg:%s\012"
   \            5265634D
   \            73673A25
   \            730A00  

   \                                 In  segment XDATA_ROM_C, align 1
   \                     `?<Constant "\\"}">`:
   \   000000   227D00       DB "\"}"

   \                                 In  segment XDATA_ROM_C, align 1
   \                     `?<Constant "\\"msg\\":\\"">`:
   \   000000   226D7367     DB "\"msg\":\""
   \            223A2200

   \                                 In  segment XDATA_ROM_C, align 1
   \                     `?<Constant "\\",\\"flow\\"">`:
   \   000000   222C2266     DB "\",\"flow\""
   \            6C6F7722
   \            00      

   \                                 In  segment XDATA_ROM_C, align 1
   \                     `?<Constant "0">`:
   \   000000   3000         DB "0"

   \                                 In  segment XDATA_ROM_C, align 1
   \                     `?<Constant "%s">`:
   \   000000   257300       DB "%s"

   \                                 In  segment XDATA_ROM_C, align 1
   \                     `?<Constant "dev0,">`:
   \   000000   64657630     DB "dev0,"
   \            2C00    

   \                                 In  segment XDATA_ROM_C, align 1
   \                     `?<Constant "dev1,">`:
   \   000000   64657631     DB "dev1,"
   \            2C00    

   \                                 In  segment XDATA_ROM_C, align 1
   \                     `?<Constant "dev2,">`:
   \   000000   64657632     DB "dev2,"
   \            2C00    

   \                                 In  segment XDATA_ROM_C, align 1
   \                     `?<Constant "dev3,">`:
   \   000000   64657633     DB "dev3,"
   \            2C00    

   \                                 In  segment XDATA_ROM_C, align 1
   \                     `?<Constant "devstatus,ck">`:
   \   000000   64657673     DB "devstatus,ck"
   \            74617475
   \            732C636B
   \            00      

   \                                 In  segment XDATA_ROM_C, align 1
   \                     `?<Constant "devstatus,">`:
   \   000000   64657673     DB "devstatus,"
   \            74617475
   \            732C00  

   \                                 In  segment XDATA_ROM_C, align 1
   \                     `?<Constant "%s%d">`:
   \   000000   25732564     DB "%s%d"
   \            00      

   \                                 In  segment XDATA_ROM_C, align 1
   \                     `?<Constant "status,ck">`:
   \   000000   73746174     DB "status,ck"
   \            75732C63
   \            6B00    

   \                                 In  segment XDATA_ROM_C, align 1
   \                     `?<Constant "201">`:
   \   000000   32303100     DB "201"

   \                                 In  segment XDATA_ROM_C, align 1
   \                     `?<Constant {0}>_2`:
   \   000000   00           DB 0
   \   000001   00000000     DB 0, 0, 0, 0, 0, 0, 0, 0
   \            00000000
   \   000009   00000000     DB 0, 0, 0, 0, 0, 0, 0, 0
   \            00000000
   \   000011   00000000     DB 0, 0, 0, 0, 0, 0, 0, 0
   \            00000000
   \   000019   00000000     DB 0, 0, 0, 0, 0, 0, 0, 0
   \            00000000
   \   000021   00000000     DB 0, 0, 0, 0, 0, 0, 0, 0
   \            00000000
   \   000029   00000000     DB 0, 0, 0, 0, 0, 0, 0, 0
   \            00000000
   \   000031   00000000     DB 0, 0, 0, 0, 0, 0, 0, 0
   \            00000000
   \   000039   00000000     DB 0, 0, 0, 0, 0, 0, 0, 0
   \            00000000
   \   000041   00000000     DB 0, 0, 0, 0, 0, 0, 0, 0
   \            00000000
   \   000049   00000000     DB 0, 0, 0, 0, 0, 0, 0, 0
   \            00000000
   \   000051   00000000     DB 0, 0, 0, 0, 0, 0, 0, 0
   \            00000000
   \   000059   00000000     DB 0, 0, 0, 0, 0, 0, 0, 0
   \            00000000
   \   000061   00000000     DB 0, 0, 0, 0, 0, 0, 0, 0
   \            00000000
   \   000069   00000000     DB 0, 0, 0, 0, 0, 0, 0, 0
   \            00000000
   \   000071   00000000     DB 0, 0, 0, 0, 0, 0, 0, 0
   \            00000000
   \   000079   00000000     DB 0, 0, 0, 0, 0, 0, 0, 0
   \            00000000
   \   000081   00000000     DB 0, 0, 0, 0, 0, 0, 0, 0
   \            00000000
   \   000089   00000000     DB 0, 0, 0, 0, 0, 0, 0, 0
   \            00000000
   \   000091   00000000     DB 0, 0, 0, 0, 0, 0, 0, 0
   \            00000000
   \   000099   00000000     DB 0, 0, 0, 0, 0, 0, 0, 0
   \            00000000
   \   0000A1   00000000     DB 0, 0, 0, 0, 0, 0, 0, 0
   \            00000000
   \   0000A9   00000000     DB 0, 0, 0, 0, 0, 0, 0, 0
   \            00000000
   \   0000B1   00000000     DB 0, 0, 0, 0, 0, 0, 0, 0
   \            00000000
   \   0000B9   00000000     DB 0, 0, 0, 0, 0, 0, 0, 0
   \            00000000
   \   0000C1   00000000     DB 0, 0, 0, 0, 0, 0, 0
   \            000000  

   \                                 In  segment XDATA_ROM_C, align 1
   \                     `?<Constant "%4d">`:
   \   000000   25346400     DB "%4d"

   \                                 In  segment XDATA_ROM_C, align 1
   \                     `?<Constant "dev%d Linked">`:
   \   000000   64657625     DB "dev%d Linked"
   \            64204C69
   \            6E6B6564
   \            00      

   \                                 In  segment XDATA_ROM_C, align 1
   \                     `?<Constant "switch1,1">`:
   \   000000   73776974     DB "switch1,1"
   \            6368312C
   \            3100    

   \                                 In  segment XDATA_ROM_C, align 1
   \                     `?<Constant "%s,%d">`:
   \   000000   25732C25     DB "%s,%d"
   \            6400    

   \                                 In  segment XDATA_ROM_C, align 1
   \                     `?<Constant "switch1">`:
   \   000000   73776974     DB "switch1"
   \            63683100

   \                                 In  segment XDATA_ROM_C, align 1
   \                     `?<Constant "switch1,0">`:
   \   000000   73776974     DB "switch1,0"
   \            6368312C
   \            3000    

   \                                 In  segment XDATA_ROM_C, align 1
   \                     `?<Constant "switch2,1">`:
   \   000000   73776974     DB "switch2,1"
   \            6368322C
   \            3100    

   \                                 In  segment XDATA_ROM_C, align 1
   \                     `?<Constant "switch2">`:
   \   000000   73776974     DB "switch2"
   \            63683200

   \                                 In  segment XDATA_ROM_C, align 1
   \                     `?<Constant "switch2,0">`:
   \   000000   73776974     DB "switch2,0"
   \            6368322C
   \            3000    

   \                                 In  segment XDATA_ROM_C, align 1
   \                     `?<Constant "switch1,ck">`:
   \   000000   73776974     DB "switch1,ck"
   \            6368312C
   \            636B00  

   \                                 In  segment XDATA_ROM_C, align 1
   \                     `?<Constant "switch2,ck">`:
   \   000000   73776974     DB "switch2,ck"
   \            6368322C
   \            636B00  

   \                                 In  segment XDATA_ROM_C, align 1
   \                     `?<Constant "%s,%d,%s,%d">`:
   \   000000   25732C25     DB "%s,%d,%s,%d"
   \            642C2573
   \            2C256400

   \                                 In  segment XDATA_ROM_C, align 1
   \                     `?<Constant "dev%d,%s">`:
   \   000000   64657625     DB "dev%d,%s"
   \            642C2573
   \            00      

   \                                 In  segment XDATA_ROM_C, align 1
   \                     `?<Constant {0}>_3`:
   \   000000   00           DB 0
   \   000001   00000000     DB 0, 0, 0, 0, 0, 0, 0, 0
   \            00000000
   \   000009   00000000     DB 0, 0, 0, 0, 0, 0, 0, 0
   \            00000000
   \   000011   00000000     DB 0, 0, 0, 0, 0, 0, 0, 0
   \            00000000
   \   000019   00000000     DB 0, 0, 0, 0, 0, 0, 0, 0
   \            00000000
   \   000021   00000000     DB 0, 0, 0, 0, 0, 0, 0, 0
   \            00000000
   \   000029   00000000     DB 0, 0, 0, 0, 0, 0, 0, 0
   \            00000000
   \   000031   00000000     DB 0, 0, 0, 0, 0, 0, 0, 0
   \            00000000
   \   000039   00000000     DB 0, 0, 0, 0, 0, 0, 0, 0
   \            00000000
   \   000041   00000000     DB 0, 0, 0, 0, 0, 0, 0, 0
   \            00000000
   \   000049   00000000     DB 0, 0, 0, 0, 0, 0, 0, 0
   \            00000000
   \   000051   00000000     DB 0, 0, 0, 0, 0, 0, 0, 0
   \            00000000
   \   000059   00000000     DB 0, 0, 0, 0, 0, 0, 0, 0
   \            00000000
   \   000061   000000       DB 0, 0, 0

   \                                 In  segment XDATA_ROM_C, align 1
   \                     `?<Constant {0}>_4`:
   \   000000   00           DB 0
   \   000001   00000000     DB 0, 0, 0, 0, 0, 0, 0, 0
   \            00000000
   \   000009   00000000     DB 0, 0, 0, 0, 0, 0, 0, 0
   \            00000000
   \   000011   00000000     DB 0, 0, 0, 0, 0, 0, 0, 0
   \            00000000
   \   000019   00000000     DB 0, 0, 0, 0, 0, 0, 0, 0
   \            00000000
   \   000021   00000000     DB 0, 0, 0, 0, 0, 0, 0, 0
   \            00000000
   \   000029   00000000     DB 0, 0, 0, 0, 0, 0, 0, 0
   \            00000000
   \   000031   00000000     DB 0, 0, 0, 0, 0, 0, 0, 0
   \            00000000
   \   000039   00000000     DB 0, 0, 0, 0, 0, 0, 0, 0
   \            00000000
   \   000041   00000000     DB 0, 0, 0, 0, 0, 0, 0, 0
   \            00000000
   \   000049   00000000     DB 0, 0, 0, 0, 0, 0, 0, 0
   \            00000000
   \   000051   00000000     DB 0, 0, 0, 0, 0, 0, 0, 0
   \            00000000
   \   000059   00000000     DB 0, 0, 0, 0, 0, 0, 0, 0
   \            00000000
   \   000061   000000       DB 0, 0, 0

   \                                 In  segment XDATA_ROM_C, align 1
   \                     `?<Constant {0}>_5`:
   \   000000   00           DB 0
   \   000001   00000000     DB 0, 0, 0, 0, 0, 0, 0, 0
   \            00000000
   \   000009   00000000     DB 0, 0, 0, 0, 0, 0, 0, 0
   \            00000000
   \   000011   00000000     DB 0, 0, 0, 0, 0, 0, 0, 0
   \            00000000
   \   000019   00000000     DB 0, 0, 0, 0, 0, 0, 0, 0
   \            00000000
   \   000021   00000000     DB 0, 0, 0, 0, 0, 0, 0, 0
   \            00000000
   \   000029   00000000     DB 0, 0, 0, 0, 0, 0, 0, 0
   \            00000000
   \   000031   00000000     DB 0, 0, 0, 0, 0, 0, 0, 0
   \            00000000
   \   000039   00000000     DB 0, 0, 0, 0, 0, 0, 0, 0
   \            00000000
   \   000041   00000000     DB 0, 0, 0, 0, 0, 0, 0, 0
   \            00000000
   \   000049   00000000     DB 0, 0, 0, 0, 0, 0, 0, 0
   \            00000000
   \   000051   00000000     DB 0, 0, 0, 0, 0, 0, 0, 0
   \            00000000
   \   000059   00000000     DB 0, 0, 0, 0, 0, 0, 0, 0
   \            00000000
   \   000061   000000       DB 0, 0, 0

   \                                 In  segment XDATA_ROM_C, align 1
   \                     `?<Constant "receive">`:
   \   000000   72656365     DB "receive"
   \            69766500

   \                                 In  segment XDATA_ROM_C, align 1
   \                     `?<Constant "too many msg, hold on">`:
   \   000000   746F6F20     DB "too many msg, hold on"
   \            6D616E79
   \            206D7367
   \            2C20686F
   \            6C64206F
   \            6E00    

   \                                 In  segment XDATA_ROM_C, align 1
   \                     `?<Constant "too many msg">`:
   \   000000   746F6F20     DB "too many msg"
   \            6D616E79
   \            206D7367
   \            00      

   \                                 In  segment XDATA_ROM_C, align 1
   \                     `?<Constant {0}>_6`:
   \   000000   00           DB 0
   \   000001   00000000     DB 0, 0, 0, 0, 0, 0, 0, 0
   \            00000000
   \   000009   00000000     DB 0, 0, 0, 0, 0, 0, 0, 0
   \            00000000
   \   000011   00000000     DB 0, 0, 0, 0, 0, 0, 0, 0
   \            00000000
   \   000019   00000000     DB 0, 0, 0, 0, 0, 0, 0, 0
   \            00000000
   \   000021   00000000     DB 0, 0, 0, 0, 0, 0, 0, 0
   \            00000000
   \   000029   00000000     DB 0, 0, 0, 0, 0, 0, 0, 0
   \            00000000
   \   000031   00000000     DB 0, 0, 0, 0, 0, 0, 0, 0
   \            00000000
   \   000039   00000000     DB 0, 0, 0, 0, 0, 0, 0, 0
   \            00000000
   \   000041   00000000     DB 0, 0, 0, 0, 0, 0, 0, 0
   \            00000000
   \   000049   00000000     DB 0, 0, 0, 0, 0, 0, 0, 0
   \            00000000
   \   000051   00000000     DB 0, 0, 0, 0, 0, 0, 0, 0
   \            00000000
   \   000059   00000000     DB 0, 0, 0, 0, 0, 0, 0, 0
   \            00000000
   \   000061   00000000     DB 0, 0, 0, 0, 0, 0, 0, 0
   \            00000000
   \   000069   00000000     DB 0, 0, 0, 0, 0, 0, 0, 0
   \            00000000
   \   000071   00000000     DB 0, 0, 0, 0, 0, 0, 0, 0
   \            00000000
   \   000079   00000000     DB 0, 0, 0, 0, 0, 0, 0, 0
   \            00000000
   \   000081   00000000     DB 0, 0, 0, 0, 0, 0, 0, 0
   \            00000000
   \   000089   00000000     DB 0, 0, 0, 0, 0, 0, 0, 0
   \            00000000
   \   000091   00000000     DB 0, 0, 0, 0, 0, 0, 0, 0
   \            00000000
   \   000099   00000000     DB 0, 0, 0, 0, 0, 0, 0, 0
   \            00000000
   \   0000A1   00000000     DB 0, 0, 0, 0, 0, 0, 0, 0
   \            00000000
   \   0000A9   00000000     DB 0, 0, 0, 0, 0, 0, 0, 0
   \            00000000
   \   0000B1   00000000     DB 0, 0, 0, 0, 0, 0, 0, 0
   \            00000000
   \   0000B9   00000000     DB 0, 0, 0, 0, 0, 0, 0, 0
   \            00000000
   \   0000C1   00000000     DB 0, 0, 0, 0, 0, 0, 0
   \            000000  

   \                                 In  segment XDATA_ROM_C, align 1
   \                     `?<Constant "{\\"msg\\":\\"%s\\",\\"flow\\":%s}">`:
   \   000000   7B226D73     DB "{\"msg\":\"%s\",\"flow\":%s}"
   \            67223A22
   \            2573222C
   \            22666C6F
   \            77223A25
   \            737D00  

   \                                 In  segment XDATA_ROM_C, align 1
   \                     `?<Constant "\\n">`:
   \   000000   0A00         DB "\012"

   \                                 In  segment XDATA_ROM_C, align 1
   \                     `?<Constant "rx len=%d(%x,%x,%x,%x)\\r\\n">`:
   \   000000   7278206C     DB "rx len=%d(%x,%x,%x,%x)\015\012"
   \            656E3D25
   \            64282578
   \            2C25782C
   \            25782C25
   \            78290D0A
   \            00      

   \                                 In  segment XDATA_ROM_C, align 1
   \                     `?<Constant "rx len=%d.\\r\\n">`:
   \   000000   7278206C     DB "rx len=%d.\015\012"
   \            656E3D25
   \            642E0D0A
   \            00      

   \                                 In  segment XDATA_ROM_C, align 1
   \                     `?<Constant {0}>_7`:
   \   000000   00           DB 0
   \   000001   00000000     DB 0, 0, 0, 0, 0, 0, 0, 0
   \            00000000
   \   000009   00000000     DB 0, 0, 0, 0, 0, 0, 0, 0
   \            00000000
   \   000011   00000000     DB 0, 0, 0, 0, 0, 0, 0, 0
   \            00000000
   \   000019   00000000     DB 0, 0, 0, 0, 0, 0, 0, 0
   \            00000000
   \   000021   00000000     DB 0, 0, 0, 0, 0, 0, 0, 0
   \            00000000
   \   000029   00000000     DB 0, 0, 0, 0, 0, 0, 0, 0
   \            00000000
   \   000031   00000000     DB 0, 0, 0, 0, 0, 0, 0, 0
   \            00000000
   \   000039   00000000     DB 0, 0, 0, 0, 0, 0, 0, 0
   \            00000000
   \   000041   00000000     DB 0, 0, 0, 0, 0, 0, 0, 0
   \            00000000
   \   000049   00000000     DB 0, 0, 0, 0, 0, 0, 0, 0
   \            00000000
   \   000051   00000000     DB 0, 0, 0, 0, 0, 0, 0, 0
   \            00000000
   \   000059   00000000     DB 0, 0, 0, 0, 0, 0, 0, 0
   \            00000000
   \   000061   00000000     DB 0, 0, 0, 0, 0, 0, 0, 0
   \            00000000
   \   000069   00000000     DB 0, 0, 0, 0, 0, 0, 0, 0
   \            00000000
   \   000071   00000000     DB 0, 0, 0, 0, 0, 0, 0, 0
   \            00000000
   \   000079   00000000     DB 0, 0, 0, 0, 0, 0, 0, 0
   \            00000000
   \   000081   00000000     DB 0, 0, 0, 0, 0, 0, 0, 0
   \            00000000
   \   000089   00000000     DB 0, 0, 0, 0, 0, 0, 0, 0
   \            00000000
   \   000091   00000000     DB 0, 0, 0, 0, 0, 0, 0, 0
   \            00000000
   \   000099   00000000     DB 0, 0, 0, 0, 0, 0, 0, 0
   \            00000000
   \   0000A1   00000000     DB 0, 0, 0, 0, 0, 0, 0, 0
   \            00000000
   \   0000A9   00000000     DB 0, 0, 0, 0, 0, 0, 0, 0
   \            00000000
   \   0000B1   00000000     DB 0, 0, 0, 0, 0, 0, 0, 0
   \            00000000
   \   0000B9   00000000     DB 0, 0, 0, 0, 0, 0, 0, 0
   \            00000000
   \   0000C1   00000000     DB 0, 0, 0, 0, 0, 0, 0
   \            000000  

   \                                 In  segment XDATA_ROM_C, align 1
   \                     `?<Constant "%4x%4d%s">`:
   \   000000   25347825     DB "%4x%4d%s"
   \            34642573
   \            00      

   \                                 In  segment XDATA_ROM_C, align 1
   \                     `?<Constant "FinalSendData:%s\\n">`:
   \   000000   46696E61     DB "FinalSendData:%s\012"
   \            6C53656E
   \            64446174
   \            613A2573
   \            0A00    

   \                                 In  segment XDATA_ROM_C, align 1
   \                     `?<Constant "%d">`:
   \   000000   256400       DB "%d"

   \                                 In  segment XDATA_ROM_C, align 1
   \                     __Constant_3e8:
   \   000000   E8030000     DD 1000

   Maximum stack usage in bytes:

     Function                       ISTACK PSTACK XSTACK
     --------                       ------ ------ ------
     ESP8266_SendData                   0      0     10
       -> HalUARTWrite                  0      0     20
     OneNet_publish_topic               0      0     10
       -> mqtt_publish_topic            0      0     20
     Response2mqtt                      2      0    337
       -> sprintf                       0      0    432
       -> printf                        0      0    424
       -> printf                        0      0    424
       -> mqtt_publish_topic            0      0    424
     SampleApp_CallBack                 0      0     26
       -> HalUARTRead                   0      0     32
       -> osal_memset                   0      0     32
       -> HalUARTRead                   0      0     32
       -> debug                         0      0     52
       -> MQTT_UnPacketRecv             0      0     32
       -> MQTT_UnPacketConnectAck       0      0     32
       -> mqtt_subscribe_topic          0      0     32
       -> osal_GetSystemClock           0      0     32
       -> osal_memset                   0      0     32
       -> HalUARTRead                   0      0     32
       -> debug                         0      0     36
       -> OneNet_RevPro                 0      0     32
       -> osal_memset                   0      0     32
     SampleApp_HandleKeys               0      0    135
       -> SampleApp_SendPointToPointMessage
                                        0      0     28
       -> SampleApp_SendPointToPointMessage
                                        0      0     28
     SampleApp_Init                     0      0     14
       -> MT_UartInit                   0      0     22
       -> MT_UartRegisterTaskID         0      0     22
       -> afRegister                    0      0     22
       -> RegisterForKeys               0      0     22
       -> sprintf                       0      0     22
       -> sprintf                       0      0     22
       -> osal_memcpy                   0      0     28
       -> aps_AddGroup                  0      0     22
       -> HalLcdWriteString             0      0     22
       -> NLME_GetShortAddr             0      0     22
       -> NLME_GetExtAddr               0      0     26
       -> memcpy                        0      0     26
     SampleApp_ProcessEvent             2      0    125
       -> osal_msg_receive              0      0    242
       -> SampleApp_HandleKeys          0      0    242
       -> SampleApp_ProcessMSGCmd       0      0    242
       -> HalLcdWriteString             0      0    242
       -> SampleApp_getIEEEAddr         0      0    242
       -> HalLcdWriteString             0      0    242
       -> SampleApp_SendPointToPointMessage
                                        0      0    250
       -> HalLcdWriteString             0      0    242
       -> osal_start_timerEx            0      0    242
       -> osal_start_timerEx            0      0    242
       -> osal_msg_deallocate           0      0    242
       -> osal_msg_receive              0      0    242
       -> sprintf                       0      0    242
       -> osal_start_timerEx            0      0    242
       -> osal_start_timerEx            0      0    242
       -> OneNet_DevLink                0      0    242
       -> HalLedBlink                   0      0    242
       -> osal_start_timerEx            0      0    242
       -> onenet_mqtt_send_heart        0      0    242
       -> osal_start_timerEx            0      0    242
       -> osal_start_timerEx            0      0    242
       -> printf                        0      0    246
       -> strstr                        0      0    242
       -> strstr                        0      0    242
       -> strstr                        0      0    242
       -> strstr                        0      0    246
       -> memcpy                        0      0    246
       -> strstr                        0      0    242
       -> strstr                        0      0    242
       -> strstr                        0      0    242
       -> strstr                        0      0    246
       -> memcpy                        0      0    246
       -> strcmp                        0      0    242
       -> sprintf                       0      0    246
       -> osal_start_timerEx            0      0    242
       -> strstr                        0      0    242
       -> strlen                        0      0    242
       -> SampleApp_SendPointToPointMessage
                                        0      0    250
       -> strstr                        0      0    242
       -> strlen                        0      0    242
       -> SampleApp_SendPointToPointMessage
                                        0      0    250
       -> strstr                        0      0    242
       -> strlen                        0      0    242
       -> SampleApp_SendPointToPointMessage
                                        0      0    250
       -> strstr                        0      0    242
       -> strlen                        0      0    242
       -> SampleApp_SendPointToPointMessage
                                        0      0    250
       -> strstr                        0      0    242
       -> sprintf                       0      0    242
       -> sprintf                       0      0    250
       -> SampleApp_SendPointToPointMessage
                                        0      0    250
       -> sprintf                       0      0    246
       -> osal_start_timerEx            0      0    242
       -> osal_memset                   0      0    242
       -> Response2mqtt                 0      0    242
       -> osal_memset                   0      0    242
     SampleApp_ProcessMSGCmd            2      0    345
       -> memcpy                        0      0    436
       -> sscanf                        0      0    436
       -> memcpy                        0      0    436
       -> sscanf                        0      0    436
       -> memcpy                        0      0    436
       -> HalLcdWriteString             0      0    432
       -> printf                        0      0    436
       -> strncmp                       0      0    436
       -> sprintf                       0      0    436
       -> osal_start_timerEx            0      0    432
       -> strstr                        0      0    432
       -> sprintf                       0      0    440
       -> strlen                        0      0    432
       -> SampleApp_SendPointToPointMessage
                                        0      0    440
       -> strstr                        0      0    432
       -> sprintf                       0      0    440
       -> strlen                        0      0    432
       -> SampleApp_SendPointToPointMessage
                                        0      0    440
       -> strstr                        0      0    432
       -> sprintf                       0      0    440
       -> strlen                        0      0    432
       -> SampleApp_SendPointToPointMessage
                                        0      0    440
       -> strstr                        0      0    432
       -> sprintf                       0      0    440
       -> strlen                        0      0    432
       -> SampleApp_SendPointToPointMessage
                                        0      0    440
       -> strstr                        0      0    432
       -> sprintf                       0      0    440
       -> strlen                        0      0    432
       -> SampleApp_SendPointToPointMessage
                                        0      0    440
       -> strstr                        0      0    432
       -> sprintf                       0      0    440
       -> strlen                        0      0    432
       -> SampleApp_SendPointToPointMessage
                                        0      0    440
       -> strstr                        0      0    432
       -> sprintf                       0      0    448
       -> strlen                        0      0    432
       -> SampleApp_SendPointToPointMessage
                                        0      0    440
       -> sprintf                       0      0    440
       -> osal_start_timerEx            0      0    432
     SampleApp_SendPointToPointMessage
                                        2      0    445
       -> sprintf                       0      0    444
       -> printf                        0      0    436
       -> AF_DataRequest                0      0    450
       -> printf                        0      0    436
     SampleApp_getIEEEAddr              1      0    133
     debug                              0      0     26
     mqtt_rx                            2      0    316
       -> HalLcdWriteString             0      0    628
       -> HalLcdWriteString             0      0    628
       -> strlen                        0      0    628
       -> memcpy                        0      0    632
       -> strrchr                       0      0    628
       -> strlen                        0      0    628
       -> memcpy                        0      0    632
       -> strcmp                        0      0    628
       -> strlen                        0      0    628
       -> memcpy                        0      0    632
       -> osal_start_timerEx            0      0    628
       -> HalLcdWriteString             0      0    628
       -> sprintf                       0      0    628
       -> osal_start_timerEx            0      0    628
       -> HalLcdWriteString             0      0    628


   Segment part sizes:

     Function/Label                             Bytes
     --------------                             -----
     _A_P0                                         1
     _A_P1                                         1
     SampleApp_ClusterList                         6
     SampleApp_SimpleDesc                         12
     SampleApp_epDesc                              6
     SampleApp_NwkState                            1
     SampleApp_TaskID                              1
     SampleApp_P2P_DstAddr                        12
     SampleApp_Periodic_DstAddr                   12
     SampleApp_Group                              18
     DevicesIEEEAddr                              68
     DevicesShortAddr                              8
     devicesOnline                                 8
     devicesOnlineStatus                           8
     flag_COOR_CHECK_or_ENDDEV_HEART_BEAT_EVT
                                                   1
     MqttRecMsg                                  200
     NwkAddr                                       2
     MacAddr                                       8
     SampleApp_TransID                             1
     SampleApp_RxBuf                             301
     SampleApp_RxLen                               2
     onenet_login_ok                               1
     end_temp                                      1
     end_hum                                       1
     g_mqtt_topics_set                            10
     topics_buff                                  60
     topics_post                                 100
     mqtt_message                                200
     SampleApp_Init                              228
     SampleApp_HandleKeys                        108
     SampleApp_ProcessEvent                     1975
     SampleApp_ProcessMSGCmd                    1884
     ESP8266_SendData                             35
     mqtt_rx                                     405
     Response2mqtt                               122
     OneNet_publish_topic                         32
     lastReadMs                                    4
     SampleApp_CallBack                          436
     debug                                         3
     SampleApp_getIEEEAddr                       154
     SampleApp_SendPointToPointMessage
                                                 279
     ?<Initializer for SampleApp_epDesc>           6
     ?<Initializer for DevicesIEEEAddr>           68
     ?<Initializer for DevicesShortAddr>           8
     ?<Initializer for NwkAddr>                    2
     ??SampleApp_Init?relay                        6
     ??SampleApp_HandleKeys?relay                  6
     ??SampleApp_ProcessEvent?relay                6
     ??SampleApp_ProcessMSGCmd?relay               6
     ??ESP8266_SendData?relay                      6
     ??mqtt_rx?relay                               6
     ??Response2mqtt?relay                         6
     ??OneNet_publish_topic?relay                  6
     ??SampleApp_CallBack?relay                    6
     ??debug?relay                                 6
     ??SampleApp_getIEEEAddr?relay                 6
     ??SampleApp_SendPointToPointMessage?relay     6
     ?<Constant "/a1xaMw4YerO/device/u...">       34
     ?<Constant "/a1xaMw4YerO/device/u...">_1     33
     ?<Constant "Group 1">                         8
     ?<Constant "SampleApp">                      10
     ?<Constant "1002 msg">                        9
     ?<Constant "1004 msg">                        9
     ?<Constant "get coord">                      10
     ?<Constant "lost coord">                     11
     ?<Constant "Coord Linked">                   13
     ?<Constant {0}>                              40
     ?<Constant {0}>_1                            50
     ?<Constant "MqttRecMsg:%s\n">                15
     ?<Constant "\"}">                             3
     ?<Constant "\"msg\":\"">                      8
     ?<Constant "\",\"flow\"">                     9
     ?<Constant "0">                               2
     ?<Constant "%s">                              3
     ?<Constant "dev0,">                           6
     ?<Constant "dev1,">                           6
     ?<Constant "dev2,">                           6
     ?<Constant "dev3,">                           6
     ?<Constant "devstatus,ck">                   13
     ?<Constant "devstatus,">                     11
     ?<Constant "%s%d">                            5
     ?<Constant "status,ck">                      10
     ?<Constant "201">                             4
     ?<Constant {0}>_2                           200
     ?<Constant "%4d">                             4
     ?<Constant "dev%d Linked">                   13
     ?<Constant "switch1,1">                      10
     ?<Constant "%s,%d">                           6
     ?<Constant "switch1">                         8
     ?<Constant "switch1,0">                      10
     ?<Constant "switch2,1">                      10
     ?<Constant "switch2">                         8
     ?<Constant "switch2,0">                      10
     ?<Constant "switch1,ck">                     11
     ?<Constant "switch2,ck">                     11
     ?<Constant "%s,%d,%s,%d">                    12
     ?<Constant "dev%d,%s">                        9
     ?<Constant {0}>_3                           100
     ?<Constant {0}>_4                           100
     ?<Constant {0}>_5                           100
     ?<Constant "receive">                         8
     ?<Constant "too many msg, hold on">          22
     ?<Constant "too many msg">                   13
     ?<Constant {0}>_6                           200
     ?<Constant "{\"msg\":\"%s\",\"flow\":%s}">   23
     ?<Constant "\n">                              2
     ?<Constant "rx len=%d(%x,%x,%x,%x)\r\n">     25
     ?<Constant "rx len=%d.\r\n">                 13
     ?<Constant {0}>_7                           200
     ?<Constant "%4x%4d%s">                        9
     ?<Constant "FinalSendData:%s\n">             18
     ?<Constant "%d">                              3
     __Constant_3e8                                4

 
 5 661 bytes in segment BANKED_CODE
    72 bytes in segment BANK_RELAYS
     2 bytes in segment SFR_AN
    84 bytes in segment XDATA_I
    84 bytes in segment XDATA_ID
 1 514 bytes in segment XDATA_ROM_C
   950 bytes in segment XDATA_Z
 
 5 817 bytes of CODE  memory
 1 510 bytes of CONST memory (+ 4 bytes shared)
     0 bytes of DATA  memory (+ 2 bytes shared)
 1 034 bytes of XDATA memory

Errors: none
Warnings: 72
