///////////////////////////////////////////////////////////////////////////////
//                                                                            /
// IAR C/C++ Compiler V8.10.3.10338/W32 for 8051        07/Feb/2022  23:27:50 /
// Copyright 2004-2011 IAR Systems AB.                                        /
//                                                                            /
//    Core               =  plain                                             /
//    Code model         =  banked                                            /
//    Data model         =  large                                             /
//    Calling convention =  xdata reentrant                                   /
//    Constant location  =  data_rom                                          /
//    Dptr setup         =  1,16                                              /
//    Source file        =  e:\imtht\Documents\Code\Zigbee\ZStack-2.5.1a\Proj /
//                          ects\zstack\Samples\SampleApp\Source\SampleApp.c  /
//    Command line       =  -f e:\imtht\Documents\Code\Zigbee\ZStack-2.5.1a\P /
//                          rojects\zstack\Samples\SampleApp\CC2530DB\..\..\. /
//                          .\Tools\CC2530DB\f8wCoord.cfg (-DCPU32MHZ         /
//                          -DROOT=__near_func -DMAC_CFG_APP_PENDING_QUEUE=TR /
//                          UE -DMAC_CFG_TX_DATA_MAX=5 -DMAC_CFG_TX_MAX=8     /
//                          -DMAC_CFG_RX_MAX=5 -DZDO_COORDINATOR -DRTR_NWK)   /
//                          -f e:\imtht\Documents\Code\Zigbee\ZStack-2.5.1a\P /
//                          rojects\zstack\Samples\SampleApp\CC2530DB\..\..\. /
//                          .\Tools\CC2530DB\f8wConfig.cfg (-DZIGBEEPRO       /
//                          -DSECURE=0 -DZG_SECURE_DYNAMIC=0 -DREFLECTOR      /
//                          -DDEFAULT_CHANLIST=0x00000800                     /
//                          -DZDAPP_CONFIG_PAN_ID=0xFFF1                      /
//                          -DNWK_START_DELAY=100 -DEXTENDED_JOINING_RANDOM_M /
//                          ASK=0x007F -DBEACON_REQUEST_DELAY=100             /
//                          -DBEACON_REQ_DELAY_MASK=0x00FF                    /
//                          -DLINK_STATUS_JITTER_MASK=0x007F                  /
//                          -DROUTE_EXPIRY_TIME=30 -DAPSC_ACK_WAIT_DURATION_P /
//                          OLLED=3000 -DNWK_INDIRECT_MSG_TIMEOUT=7           /
//                          -DMAX_RREQ_ENTRIES=8 -DAPSC_MAX_FRAME_RETRIES=3   /
//                          -DNWK_MAX_DATA_RETRIES=2                          /
//                          -DMAX_POLL_FAILURE_RETRIES=2 -DMAX_BCAST=9        /
//                          -DAPS_MAX_GROUPS=16 -DMAX_RTG_ENTRIES=40          /
//                          -DNWK_MAX_BINDING_ENTRIES=4                       /
//                          -DMAX_BINDING_CLUSTER_IDS=4                       /
//                          "-DDEFAULT_KEY={0x01, 0x03, 0x05, 0x07, 0x09,     /
//                          0x0B, 0x0D, 0x0F, 0x00, 0x02, 0x04, 0x06, 0x08,   /
//                          0x0A, 0x0C, 0x0D}" -DMAC_MAX_FRAME_SIZE=116       /
//                          -DZDNWKMGR_MIN_TRANSMISSIONS=20 "-DCONST=const    /
//                          __code" -DGENERIC=__generic                       /
//                          -DRFD_RCVC_ALWAYS_ON=FALSE -DPOLL_RATE=1000       /
//                          -DQUEUED_POLL_RATE=100 -DRESPONSE_POLL_RATE=100)  /
//                          -DREJOIN_POLL_RATE=440 e:\imtht\Documents\Code\Zi /
//                          gbee\ZStack-2.5.1a\Projects\zstack\Samples\Sample /
//                          App\Source\SampleApp.c -D ZTOOL_P1 -D xMT_TASK    /
//                          -D xMT_SYS_FUNC -D xMT_ZDO_FUNC -D                /
//                          LCD_SUPPORTED=DEBUG -lC                           /
//                          e:\imtht\Documents\Code\Zigbee\ZStack-2.5.1a\Proj /
//                          ects\zstack\Samples\SampleApp\CC2530DB\Coordinato /
//                          rEB\List\ -lA e:\imtht\Documents\Code\Zigbee\ZSta /
//                          ck-2.5.1a\Projects\zstack\Samples\SampleApp\CC253 /
//                          0DB\CoordinatorEB\List\ --diag_suppress           /
//                          Pe001,Pa010 -o e:\imtht\Documents\Code\Zigbee\ZSt /
//                          ack-2.5.1a\Projects\zstack\Samples\SampleApp\CC25 /
//                          30DB\CoordinatorEB\Obj\ -e --no_cse --no_unroll   /
//                          --no_inline --no_code_motion --no_tbaa --debug    /
//                          --core=plain --dptr=16,1 --data_model=large       /
//                          --code_model=banked --calling_convention=xdata_re /
//                          entrant --place_constants=data_rom                /
//                          --nr_virtual_regs 16 -I                           /
//                          e:\imtht\Documents\Code\Zigbee\ZStack-2.5.1a\Proj /
//                          ects\zstack\Samples\SampleApp\CC2530DB\ -I        /
//                          e:\imtht\Documents\Code\Zigbee\ZStack-2.5.1a\Proj /
//                          ects\zstack\Samples\SampleApp\CC2530DB\..\Source\ /
//                           -I e:\imtht\Documents\Code\Zigbee\ZStack-2.5.1a\ /
//                          Projects\zstack\Samples\SampleApp\CC2530DB\..\..\ /
//                          ..\ZMain\TI2530DB\ -I e:\imtht\Documents\Code\Zig /
//                          bee\ZStack-2.5.1a\Projects\zstack\Samples\SampleA /
//                          pp\CC2530DB\..\..\..\..\..\Components\hal\include /
//                          \ -I e:\imtht\Documents\Code\Zigbee\ZStack-2.5.1a /
//                          \Projects\zstack\Samples\SampleApp\CC2530DB\..\.. /
//                          \..\..\..\Components\hal\target\CC2530EB\ -I      /
//                          e:\imtht\Documents\Code\Zigbee\ZStack-2.5.1a\Proj /
//                          ects\zstack\Samples\SampleApp\CC2530DB\..\..\..\. /
//                          .\..\Components\mac\include\ -I                   /
//                          e:\imtht\Documents\Code\Zigbee\ZStack-2.5.1a\Proj /
//                          ects\zstack\Samples\SampleApp\CC2530DB\..\..\..\. /
//                          .\..\Components\mac\high_level\ -I                /
//                          e:\imtht\Documents\Code\Zigbee\ZStack-2.5.1a\Proj /
//                          ects\zstack\Samples\SampleApp\CC2530DB\..\..\..\. /
//                          .\..\Components\mac\low_level\srf04\ -I           /
//                          e:\imtht\Documents\Code\Zigbee\ZStack-2.5.1a\Proj /
//                          ects\zstack\Samples\SampleApp\CC2530DB\..\..\..\. /
//                          .\..\Components\mac\low_level\srf04\single_chip\  /
//                          -I e:\imtht\Documents\Code\Zigbee\ZStack-2.5.1a\P /
//                          rojects\zstack\Samples\SampleApp\CC2530DB\..\..\. /
//                          .\..\..\Components\mt\ -I                         /
//                          e:\imtht\Documents\Code\Zigbee\ZStack-2.5.1a\Proj /
//                          ects\zstack\Samples\SampleApp\CC2530DB\..\..\..\. /
//                          .\..\Components\osal\include\ -I                  /
//                          e:\imtht\Documents\Code\Zigbee\ZStack-2.5.1a\Proj /
//                          ects\zstack\Samples\SampleApp\CC2530DB\..\..\..\. /
//                          .\..\Components\services\saddr\ -I                /
//                          e:\imtht\Documents\Code\Zigbee\ZStack-2.5.1a\Proj /
//                          ects\zstack\Samples\SampleApp\CC2530DB\..\..\..\. /
//                          .\..\Components\services\sdata\ -I                /
//                          e:\imtht\Documents\Code\Zigbee\ZStack-2.5.1a\Proj /
//                          ects\zstack\Samples\SampleApp\CC2530DB\..\..\..\. /
//                          .\..\Components\stack\af\ -I                      /
//                          e:\imtht\Documents\Code\Zigbee\ZStack-2.5.1a\Proj /
//                          ects\zstack\Samples\SampleApp\CC2530DB\..\..\..\. /
//                          .\..\Components\stack\nwk\ -I                     /
//                          e:\imtht\Documents\Code\Zigbee\ZStack-2.5.1a\Proj /
//                          ects\zstack\Samples\SampleApp\CC2530DB\..\..\..\. /
//                          .\..\Components\stack\sapi\ -I                    /
//                          e:\imtht\Documents\Code\Zigbee\ZStack-2.5.1a\Proj /
//                          ects\zstack\Samples\SampleApp\CC2530DB\..\..\..\. /
//                          .\..\Components\stack\sec\ -I                     /
//                          e:\imtht\Documents\Code\Zigbee\ZStack-2.5.1a\Proj /
//                          ects\zstack\Samples\SampleApp\CC2530DB\..\..\..\. /
//                          .\..\Components\stack\sys\ -I                     /
//                          e:\imtht\Documents\Code\Zigbee\ZStack-2.5.1a\Proj /
//                          ects\zstack\Samples\SampleApp\CC2530DB\..\..\..\. /
//                          .\..\Components\stack\zdo\ -I                     /
//                          e:\imtht\Documents\Code\Zigbee\ZStack-2.5.1a\Proj /
//                          ects\zstack\Samples\SampleApp\CC2530DB\..\..\..\. /
//                          .\..\Components\zmac\ -I                          /
//                          e:\imtht\Documents\Code\Zigbee\ZStack-2.5.1a\Proj /
//                          ects\zstack\Samples\SampleApp\CC2530DB\..\..\..\. /
//                          .\..\Components\zmac\f8w\ -On                     /
//    List file          =  e:\imtht\Documents\Code\Zigbee\ZStack-2.5.1a\Proj /
//                          ects\zstack\Samples\SampleApp\CC2530DB\Coordinato /
//                          rEB\List\SampleApp.s51                            /
//                                                                            /
//                                                                            /
///////////////////////////////////////////////////////////////////////////////

        NAME SampleApp

        RTMODEL "__SystemLibrary", "CLib"
        RTMODEL "__calling_convention", "xdata_reentrant"
        RTMODEL "__code_model", "banked"
        RTMODEL "__core", "plain"
        RTMODEL "__data_model", "large"
        RTMODEL "__dptr_size", "16"
        RTMODEL "__extended_stack", "disabled"
        RTMODEL "__location_for_constants", "data"
        RTMODEL "__number_of_dptrs", "1"
        RTMODEL "__rt_version", "1"

        RSEG DOVERLAY:DATA:NOROOT(0)
        RSEG IOVERLAY:IDATA:NOROOT(0)
        RSEG ISTACK:IDATA:NOROOT(0)
        RSEG PSTACK:XDATA:NOROOT(0)
        RSEG XSTACK:XDATA:NOROOT(0)

        EXTERN ?ADD_XSTACK_DISP0_16
        EXTERN ?ALLOC_XSTACK8
        EXTERN ?BANKED_ENTER_XDATA
        EXTERN ?BANKED_LEAVE_XDATA
        EXTERN ?BDISPATCH
        EXTERN ?BRET
        EXTERN ?DEALLOC_XSTACK8
        EXTERN ?L_MOV_TO_X
        EXTERN ?L_SUB_X
        EXTERN ?MOVE_LONG8_XDATA_XDATA
        EXTERN ?PUSH_XSTACK8_X_TWO
        EXTERN ?PUSH_XSTACK_I_ONE
        EXTERN ?PUSH_XSTACK_I_THREE
        EXTERN ?PUSH_XSTACK_I_TWO
        EXTERN ?UL_GE_X
        EXTERN ?US_SWITCH_DENSE
        EXTERN ?V0
        EXTERN ?XSP
        EXTERN ?XSTACK_DISP0_8
        EXTERN __INIT_XDATA_I
        EXTERN __INIT_XDATA_Z

        PUBLIC ??ESP8266_SendData?relay
        FUNCTION ??ESP8266_SendData?relay,0203H
        PUBLIC ??OneNet_publish_topic?relay
        FUNCTION ??OneNet_publish_topic?relay,0203H
        PUBLIC ??Response2mqtt?relay
        FUNCTION ??Response2mqtt?relay,0203H
        PUBLIC ??SampleApp_CallBack?relay
        FUNCTION ??SampleApp_CallBack?relay,0203H
        PUBLIC ??SampleApp_HandleKeys?relay
        FUNCTION ??SampleApp_HandleKeys?relay,0203H
        PUBLIC ??SampleApp_Init?relay
        FUNCTION ??SampleApp_Init?relay,0203H
        PUBLIC ??SampleApp_ProcessEvent?relay
        FUNCTION ??SampleApp_ProcessEvent?relay,0203H
        FUNCTION ??SampleApp_ProcessMSGCmd?relay,0203H
        PUBLIC ??SampleApp_SendPointToPointMessage?relay
        FUNCTION ??SampleApp_SendPointToPointMessage?relay,0203H
        PUBLIC ??SampleApp_getIEEEAddr?relay
        FUNCTION ??SampleApp_getIEEEAddr?relay,0203H
        PUBLIC ??debug?relay
        FUNCTION ??debug?relay,0203H
        PUBLIC ??mqtt_rx?relay
        FUNCTION ??mqtt_rx?relay,0203H
        PUBLIC DevicesIEEEAddr
        PUBLIC DevicesShortAddr
        PUBLIC ESP8266_SendData
        FUNCTION ESP8266_SendData,021203H
        ARGFRAME XSTACK, 0, STACK
        LOCFRAME XSTACK, 10, STACK
        PUBLIC MacAddr
        PUBLIC MqttRecMsg
        PUBLIC NwkAddr
        PUBLIC OneNet_publish_topic
        FUNCTION OneNet_publish_topic,021203H
        ARGFRAME XSTACK, 216, STACK
        ARGFRAME IOVERLAY, 0, STATIC
        ARGFRAME DOVERLAY, 0, STATIC
        LOCFRAME XSTACK, 10, STACK
        PUBLIC Response2mqtt
        FUNCTION Response2mqtt,021203H
        ARGFRAME XSTACK, 314, STACK
        ARGFRAME IOVERLAY, 0, STATIC
        ARGFRAME DOVERLAY, 0, STATIC
        LOCFRAME XSTACK, 12, STACK
        PUBLIC SampleApp_CallBack
        FUNCTION SampleApp_CallBack,021203H
        ARGFRAME XSTACK, 0, STACK
        LOCFRAME XSTACK, 26, STACK
        PUBLIC SampleApp_ClusterList
        PUBLIC SampleApp_Group
        PUBLIC SampleApp_HandleKeys
        FUNCTION SampleApp_HandleKeys,021203H
        ARGFRAME XSTACK, 121, STACK
        ARGFRAME IOVERLAY, 0, STATIC
        ARGFRAME DOVERLAY, 0, STATIC
        LOCFRAME XSTACK, 14, STACK
        PUBLIC SampleApp_Init
        FUNCTION SampleApp_Init,021203H
        ARGFRAME XSTACK, 0, STACK
        LOCFRAME XSTACK, 14, STACK
        PUBLIC SampleApp_NwkState
        PUBLIC SampleApp_P2P_DstAddr
        PUBLIC SampleApp_Periodic_DstAddr
        PUBLIC SampleApp_ProcessEvent
        FUNCTION SampleApp_ProcessEvent,021203H
        ARGFRAME XSTACK, 0, STACK
        LOCFRAME ISTACK, 2, STACK
        LOCFRAME XSTACK, 127, STACK
        FUNCTION SampleApp_ProcessMSGCmd,0a1203H
        ARGFRAME XSTACK, 121, STACK
        ARGFRAME IOVERLAY, 0, STATIC
        ARGFRAME DOVERLAY, 0, STATIC
        LOCFRAME ISTACK, 2, STACK
        LOCFRAME XSTACK, 220, STACK
        PUBLIC SampleApp_SendPointToPointMessage
        FUNCTION SampleApp_SendPointToPointMessage,021203H
        ARGFRAME XSTACK, 220, STACK
        ARGFRAME IOVERLAY, 0, STATIC
        ARGFRAME DOVERLAY, 0, STATIC
        LOCFRAME ISTACK, 2, STACK
        LOCFRAME XSTACK, 225, STACK
        PUBLIC SampleApp_SimpleDesc
        PUBLIC SampleApp_TaskID
        PUBLIC SampleApp_TransID
        PUBLIC SampleApp_epDesc
        PUBLIC SampleApp_getIEEEAddr
        FUNCTION SampleApp_getIEEEAddr,0203H
        ARGFRAME XSTACK, 121, STACK
        ARGFRAME IOVERLAY, 0, STATIC
        ARGFRAME DOVERLAY, 0, STATIC
        LOCFRAME ISTACK, 1, STACK
        LOCFRAME XSTACK, 12, STACK
        PUBWEAK _A_P0
        PUBWEAK _A_P1
        PUBWEAK __Constant_3e8
        PUBLIC debug
        FUNCTION debug,0203H
        ARGFRAME XSTACK, 26, STACK
        ARGFRAME IOVERLAY, 0, STATIC
        ARGFRAME DOVERLAY, 0, STATIC
        PUBLIC devicesOnline
        PUBLIC devicesOnlineStatus
        PUBLIC end_hum
        PUBLIC end_temp
        PUBLIC flag_COOR_CHECK_or_ENDDEV_HEART_BEAT_EVT
        PUBLIC g_mqtt_topics_set
        PUBLIC lastReadMs
        PUBLIC mqtt_message
        PUBLIC mqtt_rx
        FUNCTION mqtt_rx,021203H
        ARGFRAME XSTACK, 0, STACK
        LOCFRAME ISTACK, 2, STACK
        LOCFRAME XSTACK, 316, STACK
        PUBLIC onenet_login_ok
        PUBLIC topics_buff
        PUBLIC topics_post
        
        CFI Names cfiNames0
        CFI StackFrame CFA_SP SP IDATA
        CFI StackFrame CFA_PSP16 PSP16 XDATA
        CFI StackFrame CFA_XSP16 XSP16 XDATA
        CFI StaticOverlayFrame CFA_IOVERLAY IOVERLAY
        CFI StaticOverlayFrame CFA_DOVERLAY DOVERLAY
        CFI Resource `PSW.CY`:1, `B.BR0`:1, `B.BR1`:1, `B.BR2`:1, `B.BR3`:1
        CFI Resource `B.BR4`:1, `B.BR5`:1, `B.BR6`:1, `B.BR7`:1, `VB.BR8`:1
        CFI Resource `VB.BR9`:1, `VB.BR10`:1, `VB.BR11`:1, `VB.BR12`:1
        CFI Resource `VB.BR13`:1, `VB.BR14`:1, `VB.BR15`:1, VB:8, B:8, A:8
        CFI Resource PSW:8, DPL0:8, DPH0:8, R0:8, R1:8, R2:8, R3:8, R4:8, R5:8
        CFI Resource R6:8, R7:8, V0:8, V1:8, V2:8, V3:8, V4:8, V5:8, V6:8, V7:8
        CFI Resource V8:8, V9:8, V10:8, V11:8, V12:8, V13:8, V14:8, V15:8, SP:8
        CFI Resource PSPH:8, PSPL:8, PSP16:16, XSPH:8, XSPL:8, XSP16:16
        CFI VirtualResource ?RET:24
        CFI Resource ?BRET_EXT:8
        CFI VirtualResource ?RET_HIGH:8, ?RET_LOW:8
        CFI ResourceParts PSP16 PSPH, PSPL
        CFI ResourceParts XSP16 XSPH, XSPL
        CFI ResourceParts ?RET ?BRET_EXT, ?RET_HIGH, ?RET_LOW
        CFI EndNames cfiNames0
        
        CFI Common cfiCommon0 Using cfiNames0
        CFI CodeAlign 1
        CFI DataAlign -1
        CFI ReturnAddress ?RET CODE
        CFI CFA_DOVERLAY Used
        CFI CFA_IOVERLAY Used
        CFI CFA_SP SP+-3
        CFI CFA_PSP16 PSP16+0
        CFI CFA_XSP16 XSP16+0
        CFI `PSW.CY` SameValue
        CFI `B.BR0` SameValue
        CFI `B.BR1` SameValue
        CFI `B.BR2` SameValue
        CFI `B.BR3` SameValue
        CFI `B.BR4` SameValue
        CFI `B.BR5` SameValue
        CFI `B.BR6` SameValue
        CFI `B.BR7` SameValue
        CFI `VB.BR8` SameValue
        CFI `VB.BR9` SameValue
        CFI `VB.BR10` SameValue
        CFI `VB.BR11` SameValue
        CFI `VB.BR12` SameValue
        CFI `VB.BR13` SameValue
        CFI `VB.BR14` SameValue
        CFI `VB.BR15` SameValue
        CFI VB SameValue
        CFI B Undefined
        CFI A Undefined
        CFI PSW SameValue
        CFI DPL0 SameValue
        CFI DPH0 SameValue
        CFI R0 Undefined
        CFI R1 Undefined
        CFI R2 Undefined
        CFI R3 Undefined
        CFI R4 Undefined
        CFI R5 Undefined
        CFI R6 SameValue
        CFI R7 SameValue
        CFI V0 SameValue
        CFI V1 SameValue
        CFI V2 SameValue
        CFI V3 SameValue
        CFI V4 SameValue
        CFI V5 SameValue
        CFI V6 SameValue
        CFI V7 SameValue
        CFI V8 SameValue
        CFI V9 SameValue
        CFI V10 SameValue
        CFI V11 SameValue
        CFI V12 SameValue
        CFI V13 SameValue
        CFI V14 SameValue
        CFI V15 SameValue
        CFI PSPH Undefined
        CFI PSPL Undefined
        CFI XSPH Undefined
        CFI XSPL Undefined
        CFI ?RET Concat
        CFI ?BRET_EXT Frame(CFA_SP, 3)
        CFI ?RET_HIGH Frame(CFA_SP, 2)
        CFI ?RET_LOW Frame(CFA_SP, 1)
        CFI EndCommon cfiCommon0
        
MT_UartInit         SYMBOL "MT_UartInit"
MT_UartRegisterTaskID SYMBOL "MT_UartRegisterTaskID"
afRegister          SYMBOL "afRegister"
RegisterForKeys     SYMBOL "RegisterForKeys"
sprintf             SYMBOL "sprintf"
osal_memcpy         SYMBOL "osal_memcpy"
aps_AddGroup        SYMBOL "aps_AddGroup"
HalLcdWriteString   SYMBOL "HalLcdWriteString"
NLME_GetShortAddr   SYMBOL "NLME_GetShortAddr"
NLME_GetExtAddr     SYMBOL "NLME_GetExtAddr"
memcpy              SYMBOL "memcpy"
mqtt_publish_topic  SYMBOL "mqtt_publish_topic"
osal_msg_receive    SYMBOL "osal_msg_receive"
osal_start_timerEx  SYMBOL "osal_start_timerEx"
osal_msg_deallocate SYMBOL "osal_msg_deallocate"
OneNet_DevLink      SYMBOL "OneNet_DevLink"
HalLedBlink         SYMBOL "HalLedBlink"
onenet_mqtt_send_heart SYMBOL "onenet_mqtt_send_heart"
printf              SYMBOL "printf"
strstr              SYMBOL "strstr"
strlen              SYMBOL "strlen"
osal_memset         SYMBOL "osal_memset"
sscanf              SYMBOL "sscanf"
strncmp             SYMBOL "strncmp"
HalUARTWrite        SYMBOL "HalUARTWrite"
strrchr             SYMBOL "strrchr"
strcmp              SYMBOL "strcmp"
HalUARTRead         SYMBOL "HalUARTRead"
MQTT_UnPacketRecv   SYMBOL "MQTT_UnPacketRecv"
MQTT_UnPacketConnectAck SYMBOL "MQTT_UnPacketConnectAck"
mqtt_subscribe_topic SYMBOL "mqtt_subscribe_topic"
osal_GetSystemClock SYMBOL "osal_GetSystemClock"
OneNet_RevPro       SYMBOL "OneNet_RevPro"
AF_DataRequest      SYMBOL "AF_DataRequest"
??AF_DataRequest?relay SYMBOL "?relay", AF_DataRequest
??HalLcdWriteString?relay SYMBOL "?relay", HalLcdWriteString
??HalLedBlink?relay SYMBOL "?relay", HalLedBlink
??HalUARTRead?relay SYMBOL "?relay", HalUARTRead
??HalUARTWrite?relay SYMBOL "?relay", HalUARTWrite
??MQTT_UnPacketConnectAck?relay SYMBOL "?relay", MQTT_UnPacketConnectAck
??MQTT_UnPacketRecv?relay SYMBOL "?relay", MQTT_UnPacketRecv
??MT_UartInit?relay SYMBOL "?relay", MT_UartInit
??MT_UartRegisterTaskID?relay SYMBOL "?relay", MT_UartRegisterTaskID
??NLME_GetExtAddr?relay SYMBOL "?relay", NLME_GetExtAddr
??NLME_GetShortAddr?relay SYMBOL "?relay", NLME_GetShortAddr
??OneNet_DevLink?relay SYMBOL "?relay", OneNet_DevLink
??OneNet_RevPro?relay SYMBOL "?relay", OneNet_RevPro
??RegisterForKeys?relay SYMBOL "?relay", RegisterForKeys
??afRegister?relay  SYMBOL "?relay", afRegister
??aps_AddGroup?relay SYMBOL "?relay", aps_AddGroup
??memcpy?relay      SYMBOL "?relay", memcpy
??mqtt_publish_topic?relay SYMBOL "?relay", mqtt_publish_topic
??mqtt_subscribe_topic?relay SYMBOL "?relay", mqtt_subscribe_topic
??onenet_mqtt_send_heart?relay SYMBOL "?relay", onenet_mqtt_send_heart
??osal_GetSystemClock?relay SYMBOL "?relay", osal_GetSystemClock
??osal_memcpy?relay SYMBOL "?relay", osal_memcpy
??osal_memset?relay SYMBOL "?relay", osal_memset
??osal_msg_deallocate?relay SYMBOL "?relay", osal_msg_deallocate
??osal_msg_receive?relay SYMBOL "?relay", osal_msg_receive
??osal_start_timerEx?relay SYMBOL "?relay", osal_start_timerEx
??printf?relay      SYMBOL "?relay", printf
??sprintf?relay     SYMBOL "?relay", sprintf
??sscanf?relay      SYMBOL "?relay", sscanf
??strcmp?relay      SYMBOL "?relay", strcmp
??strlen?relay      SYMBOL "?relay", strlen
??strncmp?relay     SYMBOL "?relay", strncmp
??strrchr?relay     SYMBOL "?relay", strrchr
??strstr?relay      SYMBOL "?relay", strstr
ESP8266_SendData    SYMBOL "ESP8266_SendData"
??ESP8266_SendData?relay SYMBOL "?relay", ESP8266_SendData
OneNet_publish_topic SYMBOL "OneNet_publish_topic"
??OneNet_publish_topic?relay SYMBOL "?relay", OneNet_publish_topic
Response2mqtt       SYMBOL "Response2mqtt"
??Response2mqtt?relay SYMBOL "?relay", Response2mqtt
SampleApp_CallBack  SYMBOL "SampleApp_CallBack"
??SampleApp_CallBack?relay SYMBOL "?relay", SampleApp_CallBack
SampleApp_HandleKeys SYMBOL "SampleApp_HandleKeys"
??SampleApp_HandleKeys?relay SYMBOL "?relay", SampleApp_HandleKeys
SampleApp_Init      SYMBOL "SampleApp_Init"
??SampleApp_Init?relay SYMBOL "?relay", SampleApp_Init
SampleApp_ProcessEvent SYMBOL "SampleApp_ProcessEvent"
??SampleApp_ProcessEvent?relay SYMBOL "?relay", SampleApp_ProcessEvent
SampleApp_SendPointToPointMessage SYMBOL "SampleApp_SendPointToPointMessage"
??SampleApp_SendPointToPointMessage?relay SYMBOL "?relay", SampleApp_SendPointToPointMessage
SampleApp_getIEEEAddr SYMBOL "SampleApp_getIEEEAddr"
??SampleApp_getIEEEAddr?relay SYMBOL "?relay", SampleApp_getIEEEAddr
debug               SYMBOL "debug"
??debug?relay       SYMBOL "?relay", debug
mqtt_rx             SYMBOL "mqtt_rx"
??mqtt_rx?relay     SYMBOL "?relay", mqtt_rx

        EXTERN MT_UartInit
        FUNCTION MT_UartInit,0200H
        ARGFRAME ISTACK, 0, STACK
        ARGFRAME PSTACK, 0, STACK
        ARGFRAME XSTACK, 11, STACK
        ARGFRAME IOVERLAY, 0, STATIC
        ARGFRAME DOVERLAY, 0, STATIC
        EXTERN MT_UartRegisterTaskID
        FUNCTION MT_UartRegisterTaskID,0200H
        ARGFRAME ISTACK, 0, STACK
        ARGFRAME PSTACK, 0, STACK
        ARGFRAME XSTACK, 11, STACK
        ARGFRAME IOVERLAY, 0, STATIC
        ARGFRAME DOVERLAY, 0, STATIC
        EXTERN afRegister
        FUNCTION afRegister,0202H
        ARGFRAME ISTACK, 0, STACK
        ARGFRAME PSTACK, 0, STACK
        ARGFRAME XSTACK, 11, STACK
        ARGFRAME IOVERLAY, 0, STATIC
        ARGFRAME DOVERLAY, 0, STATIC
        EXTERN RegisterForKeys
        FUNCTION RegisterForKeys,0202H
        ARGFRAME ISTACK, 0, STACK
        ARGFRAME PSTACK, 0, STACK
        ARGFRAME XSTACK, 11, STACK
        ARGFRAME IOVERLAY, 0, STATIC
        ARGFRAME DOVERLAY, 0, STATIC
        EXTERN sprintf
        FUNCTION sprintf,0202H
        ARGFRAME ISTACK, 0, STACK
        ARGFRAME PSTACK, 0, STACK
        ARGFRAME XSTACK, 222, STACK
        ARGFRAME IOVERLAY, 0, STATIC
        ARGFRAME DOVERLAY, 0, STATIC
        EXTERN osal_memcpy
        FUNCTION osal_memcpy,0202H
        ARGFRAME ISTACK, 0, STACK
        ARGFRAME PSTACK, 0, STACK
        ARGFRAME XSTACK, 14, STACK
        ARGFRAME IOVERLAY, 0, STATIC
        ARGFRAME DOVERLAY, 0, STATIC
        EXTERN aps_AddGroup
        FUNCTION aps_AddGroup,0202H
        ARGFRAME ISTACK, 0, STACK
        ARGFRAME PSTACK, 0, STACK
        ARGFRAME XSTACK, 11, STACK
        ARGFRAME IOVERLAY, 0, STATIC
        ARGFRAME DOVERLAY, 0, STATIC
        EXTERN HalLcdWriteString
        FUNCTION HalLcdWriteString,0202H
        ARGFRAME ISTACK, 0, STACK
        ARGFRAME PSTACK, 0, STACK
        ARGFRAME XSTACK, 314, STACK
        ARGFRAME IOVERLAY, 0, STATIC
        ARGFRAME DOVERLAY, 0, STATIC
        EXTERN NLME_GetShortAddr
        FUNCTION NLME_GetShortAddr,0202H
        ARGFRAME ISTACK, 0, STACK
        ARGFRAME PSTACK, 0, STACK
        ARGFRAME XSTACK, 11, STACK
        ARGFRAME IOVERLAY, 0, STATIC
        ARGFRAME DOVERLAY, 0, STATIC
        EXTERN NLME_GetExtAddr
        FUNCTION NLME_GetExtAddr,0202H
        ARGFRAME ISTACK, 0, STACK
        ARGFRAME PSTACK, 0, STACK
        ARGFRAME XSTACK, 13, STACK
        ARGFRAME IOVERLAY, 0, STATIC
        ARGFRAME DOVERLAY, 0, STATIC
        EXTERN memcpy
        FUNCTION memcpy,010202H
        ARGFRAME ISTACK, 0, STACK
        ARGFRAME PSTACK, 0, STACK
        ARGFRAME XSTACK, 316, STACK
        ARGFRAME IOVERLAY, 0, STATIC
        ARGFRAME DOVERLAY, 0, STATIC
        EXTERN mqtt_publish_topic
        FUNCTION mqtt_publish_topic,0202H
        ARGFRAME ISTACK, 0, STACK
        ARGFRAME PSTACK, 0, STACK
        ARGFRAME XSTACK, 10, STACK
        ARGFRAME IOVERLAY, 0, STATIC
        ARGFRAME DOVERLAY, 0, STATIC
        EXTERN osal_msg_receive
        FUNCTION osal_msg_receive,0202H
        ARGFRAME ISTACK, 0, STACK
        ARGFRAME PSTACK, 0, STACK
        ARGFRAME XSTACK, 121, STACK
        ARGFRAME IOVERLAY, 0, STATIC
        ARGFRAME DOVERLAY, 0, STATIC
        EXTERN osal_start_timerEx
        FUNCTION osal_start_timerEx,0202H
        ARGFRAME ISTACK, 0, STACK
        ARGFRAME PSTACK, 0, STACK
        ARGFRAME XSTACK, 314, STACK
        ARGFRAME IOVERLAY, 0, STATIC
        ARGFRAME DOVERLAY, 0, STATIC
        EXTERN osal_msg_deallocate
        FUNCTION osal_msg_deallocate,0202H
        ARGFRAME ISTACK, 0, STACK
        ARGFRAME PSTACK, 0, STACK
        ARGFRAME XSTACK, 121, STACK
        ARGFRAME IOVERLAY, 0, STATIC
        ARGFRAME DOVERLAY, 0, STATIC
        EXTERN OneNet_DevLink
        FUNCTION OneNet_DevLink,0202H
        ARGFRAME ISTACK, 0, STACK
        ARGFRAME PSTACK, 0, STACK
        ARGFRAME XSTACK, 121, STACK
        ARGFRAME IOVERLAY, 0, STATIC
        ARGFRAME DOVERLAY, 0, STATIC
        EXTERN HalLedBlink
        FUNCTION HalLedBlink,0202H
        ARGFRAME ISTACK, 0, STACK
        ARGFRAME PSTACK, 0, STACK
        ARGFRAME XSTACK, 121, STACK
        ARGFRAME IOVERLAY, 0, STATIC
        ARGFRAME DOVERLAY, 0, STATIC
        EXTERN onenet_mqtt_send_heart
        FUNCTION onenet_mqtt_send_heart,0202H
        ARGFRAME ISTACK, 0, STACK
        ARGFRAME PSTACK, 0, STACK
        ARGFRAME XSTACK, 121, STACK
        ARGFRAME IOVERLAY, 0, STATIC
        ARGFRAME DOVERLAY, 0, STATIC
        EXTERN printf
        FUNCTION printf,0202H
        ARGFRAME ISTACK, 0, STACK
        ARGFRAME PSTACK, 0, STACK
        ARGFRAME XSTACK, 218, STACK
        ARGFRAME IOVERLAY, 0, STATIC
        ARGFRAME DOVERLAY, 0, STATIC
        EXTERN strstr
        FUNCTION strstr,010202H
        ARGFRAME ISTACK, 0, STACK
        ARGFRAME PSTACK, 0, STACK
        ARGFRAME XSTACK, 216, STACK
        ARGFRAME IOVERLAY, 0, STATIC
        ARGFRAME DOVERLAY, 0, STATIC
        EXTERN strlen
        FUNCTION strlen,010202H
        ARGFRAME ISTACK, 0, STACK
        ARGFRAME PSTACK, 0, STACK
        ARGFRAME XSTACK, 314, STACK
        ARGFRAME IOVERLAY, 0, STATIC
        ARGFRAME DOVERLAY, 0, STATIC
        EXTERN osal_memset
        FUNCTION osal_memset,0202H
        ARGFRAME ISTACK, 0, STACK
        ARGFRAME PSTACK, 0, STACK
        ARGFRAME XSTACK, 121, STACK
        ARGFRAME IOVERLAY, 0, STATIC
        ARGFRAME DOVERLAY, 0, STATIC
        EXTERN sscanf
        FUNCTION sscanf,0202H
        ARGFRAME ISTACK, 0, STACK
        ARGFRAME PSTACK, 0, STACK
        ARGFRAME XSTACK, 218, STACK
        ARGFRAME IOVERLAY, 0, STATIC
        ARGFRAME DOVERLAY, 0, STATIC
        EXTERN strncmp
        FUNCTION strncmp,010202H
        ARGFRAME ISTACK, 0, STACK
        ARGFRAME PSTACK, 0, STACK
        ARGFRAME XSTACK, 218, STACK
        ARGFRAME IOVERLAY, 0, STATIC
        ARGFRAME DOVERLAY, 0, STATIC
        EXTERN HalUARTWrite
        FUNCTION HalUARTWrite,0202H
        ARGFRAME ISTACK, 0, STACK
        ARGFRAME PSTACK, 0, STACK
        ARGFRAME XSTACK, 10, STACK
        ARGFRAME IOVERLAY, 0, STATIC
        ARGFRAME DOVERLAY, 0, STATIC
        EXTERN strrchr
        FUNCTION strrchr,010202H
        ARGFRAME ISTACK, 0, STACK
        ARGFRAME PSTACK, 0, STACK
        ARGFRAME XSTACK, 314, STACK
        ARGFRAME IOVERLAY, 0, STATIC
        ARGFRAME DOVERLAY, 0, STATIC
        EXTERN strcmp
        FUNCTION strcmp,010202H
        ARGFRAME ISTACK, 0, STACK
        ARGFRAME PSTACK, 0, STACK
        ARGFRAME XSTACK, 314, STACK
        ARGFRAME IOVERLAY, 0, STATIC
        ARGFRAME DOVERLAY, 0, STATIC
        EXTERN HalUARTRead
        FUNCTION HalUARTRead,0202H
        ARGFRAME ISTACK, 0, STACK
        ARGFRAME PSTACK, 0, STACK
        ARGFRAME XSTACK, 16, STACK
        ARGFRAME IOVERLAY, 0, STATIC
        ARGFRAME DOVERLAY, 0, STATIC
        EXTERN MQTT_UnPacketRecv
        FUNCTION MQTT_UnPacketRecv,0202H
        ARGFRAME ISTACK, 0, STACK
        ARGFRAME PSTACK, 0, STACK
        ARGFRAME XSTACK, 16, STACK
        ARGFRAME IOVERLAY, 0, STATIC
        ARGFRAME DOVERLAY, 0, STATIC
        EXTERN MQTT_UnPacketConnectAck
        FUNCTION MQTT_UnPacketConnectAck,0202H
        ARGFRAME ISTACK, 0, STACK
        ARGFRAME PSTACK, 0, STACK
        ARGFRAME XSTACK, 16, STACK
        ARGFRAME IOVERLAY, 0, STATIC
        ARGFRAME DOVERLAY, 0, STATIC
        EXTERN mqtt_subscribe_topic
        FUNCTION mqtt_subscribe_topic,0202H
        ARGFRAME ISTACK, 0, STACK
        ARGFRAME PSTACK, 0, STACK
        ARGFRAME XSTACK, 16, STACK
        ARGFRAME IOVERLAY, 0, STATIC
        ARGFRAME DOVERLAY, 0, STATIC
        EXTERN osal_GetSystemClock
        FUNCTION osal_GetSystemClock,0202H
        ARGFRAME ISTACK, 0, STACK
        ARGFRAME PSTACK, 0, STACK
        ARGFRAME XSTACK, 16, STACK
        ARGFRAME IOVERLAY, 0, STATIC
        ARGFRAME DOVERLAY, 0, STATIC
        EXTERN OneNet_RevPro
        FUNCTION OneNet_RevPro,0202H
        ARGFRAME ISTACK, 0, STACK
        ARGFRAME PSTACK, 0, STACK
        ARGFRAME XSTACK, 16, STACK
        ARGFRAME IOVERLAY, 0, STATIC
        ARGFRAME DOVERLAY, 0, STATIC
        EXTERN AF_DataRequest
        FUNCTION AF_DataRequest,0202H
        ARGFRAME ISTACK, 0, STACK
        ARGFRAME PSTACK, 0, STACK
        ARGFRAME XSTACK, 225, STACK
        ARGFRAME IOVERLAY, 0, STATIC
        ARGFRAME DOVERLAY, 0, STATIC
        EXTERN ??AF_DataRequest?relay
        FUNCTION ??AF_DataRequest?relay,00H
        EXTERN ??HalLcdWriteString?relay
        FUNCTION ??HalLcdWriteString?relay,00H
        EXTERN ??HalLedBlink?relay
        FUNCTION ??HalLedBlink?relay,00H
        EXTERN ??HalUARTRead?relay
        FUNCTION ??HalUARTRead?relay,00H
        EXTERN ??HalUARTWrite?relay
        FUNCTION ??HalUARTWrite?relay,00H
        EXTERN ??MQTT_UnPacketConnectAck?relay
        FUNCTION ??MQTT_UnPacketConnectAck?relay,00H
        EXTERN ??MQTT_UnPacketRecv?relay
        FUNCTION ??MQTT_UnPacketRecv?relay,00H
        EXTERN ??MT_UartInit?relay
        FUNCTION ??MT_UartInit?relay,00H
        EXTERN ??MT_UartRegisterTaskID?relay
        FUNCTION ??MT_UartRegisterTaskID?relay,00H
        EXTERN ??NLME_GetExtAddr?relay
        FUNCTION ??NLME_GetExtAddr?relay,00H
        EXTERN ??NLME_GetShortAddr?relay
        FUNCTION ??NLME_GetShortAddr?relay,00H
        EXTERN ??OneNet_DevLink?relay
        FUNCTION ??OneNet_DevLink?relay,00H
        EXTERN ??OneNet_RevPro?relay
        FUNCTION ??OneNet_RevPro?relay,00H
        EXTERN ??RegisterForKeys?relay
        FUNCTION ??RegisterForKeys?relay,00H
        EXTERN ??afRegister?relay
        FUNCTION ??afRegister?relay,00H
        EXTERN ??aps_AddGroup?relay
        FUNCTION ??aps_AddGroup?relay,00H
        EXTERN ??memcpy?relay
        FUNCTION ??memcpy?relay,00H
        EXTERN ??mqtt_publish_topic?relay
        FUNCTION ??mqtt_publish_topic?relay,00H
        EXTERN ??mqtt_subscribe_topic?relay
        FUNCTION ??mqtt_subscribe_topic?relay,00H
        EXTERN ??onenet_mqtt_send_heart?relay
        FUNCTION ??onenet_mqtt_send_heart?relay,00H
        EXTERN ??osal_GetSystemClock?relay
        FUNCTION ??osal_GetSystemClock?relay,00H
        EXTERN ??osal_memcpy?relay
        FUNCTION ??osal_memcpy?relay,00H
        EXTERN ??osal_memset?relay
        FUNCTION ??osal_memset?relay,00H
        EXTERN ??osal_msg_deallocate?relay
        FUNCTION ??osal_msg_deallocate?relay,00H
        EXTERN ??osal_msg_receive?relay
        FUNCTION ??osal_msg_receive?relay,00H
        EXTERN ??osal_start_timerEx?relay
        FUNCTION ??osal_start_timerEx?relay,00H
        EXTERN ??printf?relay
        FUNCTION ??printf?relay,00H
        EXTERN ??sprintf?relay
        FUNCTION ??sprintf?relay,00H
        EXTERN ??sscanf?relay
        FUNCTION ??sscanf?relay,00H
        EXTERN ??strcmp?relay
        FUNCTION ??strcmp?relay,00H
        EXTERN ??strlen?relay
        FUNCTION ??strlen?relay,00H
        EXTERN ??strncmp?relay
        FUNCTION ??strncmp?relay,00H
        EXTERN ??strrchr?relay
        FUNCTION ??strrchr?relay,00H
        EXTERN ??strstr?relay
        FUNCTION ??strstr?relay,00H
        EXTERN aExtendedAddress

// e:\imtht\Documents\Code\Zigbee\ZStack-2.5.1a\Projects\zstack\Samples\SampleApp\Source\SampleApp.c
//    1 /*********************************************************************
//    2 注意调整mqtt.h中以下三个值可能是修改,解包的时候使用
//    3 #define max_packet_len  300     //封包的最大长度
//    4 #define MAX_CMDID_TOPIC_LEN  70   //主题的最大长度
//    5 #define MAX_REQ_PAYLOAD_LEN  150   //内容的最大长度
//    6 注意需要按实际需要增加MqttKit.h中以下二个枚举数组的定义值，定义数字请参见http://docs.oasis-open.org/mqtt/mqtt/v3.1.1/os/mqtt-v3.1.1-os.html#_Toc398718019 (Table 2.1 - Control packet types)
//    7 MqttPacketType
//    8 MqttQosLevel
//    9 注意本文件中SampleApp_CallBack函数出现2次，猜测为上任作者忘记注释出厂代码，注释掉后无影响
//   10 
//   11 2021年11月7日02点36分 imtht@outlook.com
//   12 */
//   13 
//   14 /*********************************************************************
//   15 * INCLUDES
//   16 */
//   17 
//   18 #include <stdio.h>
//   19 #include <string.h>
//   20 #include "AF.h"
//   21 #include "OnBoard.h"

        ASEGN SFR_AN:DATA:NOROOT,080H
// union <unnamed> volatile __sfr _A_P0
_A_P0:
        DATA8
        DS 1

        ASEGN SFR_AN:DATA:NOROOT,090H
// union <unnamed> volatile __sfr _A_P1
_A_P1:
        DATA8
        DS 1
//   22 #include "OSAL_Tasks.h"
//   23 #include "SampleApp.h"
//   24 #include "ZDApp.h"
//   25 #include "ZDObject.h"
//   26 #include "ZDProfile.h"
//   27 
//   28 //增加include START
//   29 #include "aps_groups.h"
//   30 //增加include END
//   31 
//   32 #include "hal_drivers.h"
//   33 #include "hal_key.h"
//   34 #if defined ( LCD_SUPPORTED )
//   35 #include "hal_lcd.h"
//   36 #endif
//   37 #include "hal_led.h"
//   38 #include "hal_uart.h"
//   39 
//   40 #ifdef ZDO_COORDINATOR
//   41 //协议文件
//   42 #include "mqtt.h"
//   43 #include "mqttkit.h"
//   44 
//   45 #else
//   46 
//   47 #include "dht11.h"
//   48 
//   49 #endif
//   50 
//   51 
//   52 /*********************************************************************
//   53 * MACROS
//   54 */
//   55 
//   56 /*********************************************************************
//   57 * CONSTANTS
//   58 */
//   59 
//   60 #if !defined( SAMPLE_APP_PORT )
//   61 #define SAMPLE_APP_PORT  0
//   62 #endif
//   63 
//   64 #if !defined( SAMPLE_APP_RX_MAX )
//   65 #define SAMPLE_APP_RX_MAX  300
//   66 #endif
//   67 #define Z_EXTADDR_LEN   8
//   68 
//   69 // This list should be filled with Application specific Cluster IDs.

        RSEG XDATA_ROM_C:CONST:REORDER:NOROOT(0)
        DATA8
//   70 const cId_t SampleApp_ClusterList[SAMPLE_MAX_CLUSTERS] =
SampleApp_ClusterList:
        DATA16
        DW 1
        DW 2
        DW 3
//   71 {
//   72   SAMPLEAPP_P2P_CLUSTERID,
//   73   SAMPLEAPP_PERIODIC_CLUSTERID,
//   74   SERIALAPP_CONNECTREQ_CLUSTER
//   75 };
//   76 

        RSEG XDATA_ROM_C:CONST:REORDER:NOROOT(0)
        DATA8
//   77 const SimpleDescriptionFormat_t SampleApp_SimpleDesc =
SampleApp_SimpleDesc:
        DB 11
        DATA16
        DW 3845
        DW 1
        DATA8
        DB 0
        DB 3
        DATA16
        DW SampleApp_ClusterList
        DATA8
        DB 3
        DATA16
        DW SampleApp_ClusterList
//   78 {
//   79   SAMPLEAPP_ENDPOINT,              //  int   Endpoint;
//   80   SAMPLEAPP_PROFID,                //  uint16 AppProfId[2];
//   81   SAMPLEAPP_DEVICEID,              //  uint16 AppDeviceId[2];
//   82   SAMPLEAPP_DEVICE_VERSION,        //  int   AppDevVer:4;
//   83   SAMPLEAPP_FLAGS,                 //  int   AppFlags:4;
//   84   SAMPLE_MAX_CLUSTERS,          //  byte  AppNumInClusters;
//   85   (cId_t *)SampleApp_ClusterList,  //  byte *pAppInClusterList;
//   86   SAMPLE_MAX_CLUSTERS,          //  byte  AppNumOutClusters;
//   87   (cId_t *)SampleApp_ClusterList   //  byte *pAppOutClusterList;
//   88 };
//   89 

        RSEG XDATA_I:XDATA:NOROOT(0)
//   90 endPointDesc_t SampleApp_epDesc =
SampleApp_epDesc:
        DATA8
        DS 6
        REQUIRE `?<Initializer for SampleApp_epDesc>`
        REQUIRE __INIT_XDATA_I
//   91 {
//   92   SAMPLEAPP_ENDPOINT,
//   93   &SampleApp_TaskID,
//   94   (SimpleDescriptionFormat_t *)&SampleApp_SimpleDesc,
//   95   noLatencyReqs
//   96 };
//   97 
//   98 /*********************************************************************
//   99 * TYPEDEFS
//  100 */
//  101 
//  102 /*********************************************************************
//  103 * GLOBAL VARIABLES
//  104 */

        RSEG XDATA_Z:XDATA:NOROOT(0)
        DATA8
//  105 devStates_t SampleApp_NwkState;
SampleApp_NwkState:
        DS 1
        REQUIRE __INIT_XDATA_Z

        RSEG XDATA_Z:XDATA:NOROOT(0)
        DATA8
//  106 uint8 SampleApp_TaskID;           // Task ID for internal task/event processing.
SampleApp_TaskID:
        DS 1
        REQUIRE __INIT_XDATA_Z
//  107 
//  108 /*********************************************************************
//  109 * EXTERNAL VARIABLES
//  110 */
//  111 
//  112 /*********************************************************************
//  113 * EXTERNAL FUNCTIONS
//  114 */
//  115 
//  116 /*********************************************************************
//  117 * LOCAL VARIABLES
//  118 */
//  119 
//  120 static uint8 SampleApp_MsgID;
//  121 

        RSEG XDATA_Z:XDATA:NOROOT(0)
        DATA8
//  122 afAddrType_t SampleApp_P2P_DstAddr;      //点播
SampleApp_P2P_DstAddr:
        DS 12
        REQUIRE __INIT_XDATA_Z
//  123 //增加变量START

        RSEG XDATA_Z:XDATA:NOROOT(0)
        DATA8
//  124 afAddrType_t SampleApp_Periodic_DstAddr;  //广播
SampleApp_Periodic_DstAddr:
        DS 12
        REQUIRE __INIT_XDATA_Z

        RSEG XDATA_Z:XDATA:NOROOT(0)
        DATA8
//  125 aps_Group_t SampleApp_Group;
SampleApp_Group:
        DS 18
        REQUIRE __INIT_XDATA_Z

        RSEG XDATA_I:XDATA:NOROOT(0)
//  126 uint8 DevicesIEEEAddr[4][17]={"00124B0006F7E953","00124B0006F78A1F","00124B0006F7EAFD","00124B001FBE1D86"};
DevicesIEEEAddr:
        DATA8
        DS 68
        REQUIRE `?<Initializer for DevicesIEEEAddr>`
        REQUIRE __INIT_XDATA_I

        RSEG XDATA_I:XDATA:NOROOT(0)
//  127 uint16 DevicesShortAddr[4]={-1,-1,-1,-1};
DevicesShortAddr:
        DATA8
        DS 8
        REQUIRE `?<Initializer for DevicesShortAddr>`
        REQUIRE __INIT_XDATA_I

        RSEG XDATA_Z:XDATA:NOROOT(0)
        DATA8
//  128 int devicesOnline[4]={0,0,0,0};//设备在线状态实时码，跟随终端心跳刷新
devicesOnline:
        DS 8
        REQUIRE __INIT_XDATA_Z

        RSEG XDATA_Z:XDATA:NOROOT(0)
        DATA8
//  129 int devicesOnlineStatus[4]={0,0,0,0};//设备在线状态码，跟随协调器定时任务刷新
devicesOnlineStatus:
        DS 8
        REQUIRE __INIT_XDATA_Z

        RSEG XDATA_Z:XDATA:NOROOT(0)
        DATA8
//  130 bool flag_COOR_CHECK_or_ENDDEV_HEART_BEAT_EVT=false;//判断SAMPLEAPP_COOR_CHECK_DEV_EVT,SAMPLEAPP_ENDDEV_HEART_BEAT_EVT是否被触发，防止重复触发
flag_COOR_CHECK_or_ENDDEV_HEART_BEAT_EVT:
        DS 1
        REQUIRE __INIT_XDATA_Z

        RSEG XDATA_Z:XDATA:NOROOT(0)
        DATA8
//  131 uint8 MqttRecMsg[200]={'\0'};//缓存mqtt触发的系统事件消息
MqttRecMsg:
        DS 200
        REQUIRE __INIT_XDATA_Z
//  132 

        RSEG XDATA_I:XDATA:NOROOT(0)
//  133 uint16 NwkAddr = 0xFFFF;
NwkAddr:
        DATA16
        DS 2
        REQUIRE `?<Initializer for NwkAddr>`
        REQUIRE __INIT_XDATA_I

        RSEG XDATA_Z:XDATA:NOROOT(0)
        DATA8
//  134 uint8 MacAddr[8]={0};
MacAddr:
        DS 8
        REQUIRE __INIT_XDATA_Z

        RSEG XDATA_Z:XDATA:NOROOT(0)
        DATA8
//  135 uint8 SampleApp_TransID;  // This is the unique message ID (counter)
SampleApp_TransID:
        DS 1
        REQUIRE __INIT_XDATA_Z
//  136 void SampleApp_getIEEEAddr(uint8* IEEEAddr);//length of IEEEAddr should be Z_EXTADDR_LEN*2
//  137 int SampleApp_SendPointToPointMessage(uint16 ReceiveAddr,uint16 DataId,uint8* SendData,uint16 Lens );//ReceiveAddr为接受设备的地址，DataId为数据识别码，4位16进制码，Lens仅写SendData长度即可
//  138 void Response2mqtt(uint8* returnMsg);//向服务器发送反馈消息，反馈主题为thing.service.switch:CmdResult中的Result参数
//  139 //增加变量END

        RSEG XDATA_Z:XDATA:NOROOT(0)
        DATA8
//  140 static uint8 SampleApp_RxBuf[SAMPLE_APP_RX_MAX+1]={0};
SampleApp_RxBuf:
        DS 301
        REQUIRE __INIT_XDATA_Z

        RSEG XDATA_Z:XDATA:NOROOT(0)
        DATA16
//  141 static uint16 SampleApp_RxLen=0;
SampleApp_RxLen:
        DS 2
        REQUIRE __INIT_XDATA_Z
//  142 

        RSEG XDATA_Z:XDATA:NOROOT(0)
        DATA8
//  143 uint8 onenet_login_ok=0;//onenet注册成功 0:未注册，1：注册中　2：注册成功
onenet_login_ok:
        DS 1
        REQUIRE __INIT_XDATA_Z

        RSEG XDATA_Z:XDATA:NOROOT(0)
        DATA8
//  144 uint8 end_temp;//终端的温度
end_temp:
        DS 1
        REQUIRE __INIT_XDATA_Z

        RSEG XDATA_Z:XDATA:NOROOT(0)
        DATA8
//  145 uint8 end_hum;//终端的湿度
end_hum:
        DS 1
        REQUIRE __INIT_XDATA_Z
//  146 
//  147 
//  148 #ifdef ZDO_COORDINATOR

        RSEG XDATA_Z:XDATA:NOROOT(0)
        DATA8
//  149 signed char *g_mqtt_topics_set[5] = {NULL};
g_mqtt_topics_set:
        DS 10
        REQUIRE __INIT_XDATA_Z

        RSEG XDATA_Z:XDATA:NOROOT(0)
        DATA8
//  150 u8 topics_buff[60]={0};
topics_buff:
        DS 60
        REQUIRE __INIT_XDATA_Z

        RSEG XDATA_Z:XDATA:NOROOT(0)
        DATA8
//  151 u8 topics_post[100]={0}; //发布的主题
topics_post:
        DS 100
        REQUIRE __INIT_XDATA_Z

        RSEG XDATA_Z:XDATA:NOROOT(0)
        DATA8
//  152 u8 mqtt_message[200]={0};//发布的消息
mqtt_message:
        DS 200
        REQUIRE __INIT_XDATA_Z
//  153 #endif
//  154 
//  155 /*********************************************************************
//  156 * LOCAL FUNCTIONS
//  157 */
//  158 
//  159 static void SampleApp_ProcessMSGCmd( afIncomingMSGPacket_t *pkt );
//  160 void SampleApp_CallBack(uint8 port, uint8 event);
//  161 static void SampleApp_Send_P2P_Message( void );
//  162 bool OneNet_publish_topic(const char *topic, const char *msg);
//  163 void debug(uint8 * msg, ...);
//  164 
//  165 /*********************************************************************
//  166 * @fn      SampleApp_Init
//  167 *
//  168 * @brief   This is called during OSAL tasks' initialization.
//  169 *
//  170 * @param   task_id - the Task ID assigned by OSAL.
//  171 *
//  172 * @return  none
//  173 */

        RSEG BANKED_CODE:CODE:NOROOT(0)
//  174 void SampleApp_Init( uint8 task_id )
SampleApp_Init:
        CFI Block cfiBlock0 Using cfiCommon0
        CFI Function SampleApp_Init
        CODE
//  175 {
        FUNCALL SampleApp_Init, MT_UartInit
        LOCFRAME ISTACK, 0, STACK
        LOCFRAME PSTACK, 0, STACK
        LOCFRAME XSTACK, 11, STACK
        LOCFRAME IOVERLAY, 0, STATIC
        LOCFRAME DOVERLAY, 0, STATIC
        ARGFRAME ISTACK, 0, STACK
        ARGFRAME PSTACK, 0, STACK
        ARGFRAME XSTACK, 11, STACK
        ARGFRAME IOVERLAY, 0, STATIC
        ARGFRAME DOVERLAY, 0, STATIC
        FUNCALL SampleApp_Init, MT_UartRegisterTaskID
        LOCFRAME ISTACK, 0, STACK
        LOCFRAME PSTACK, 0, STACK
        LOCFRAME XSTACK, 11, STACK
        LOCFRAME IOVERLAY, 0, STATIC
        LOCFRAME DOVERLAY, 0, STATIC
        ARGFRAME ISTACK, 0, STACK
        ARGFRAME PSTACK, 0, STACK
        ARGFRAME XSTACK, 11, STACK
        ARGFRAME IOVERLAY, 0, STATIC
        ARGFRAME DOVERLAY, 0, STATIC
        FUNCALL SampleApp_Init, afRegister
        LOCFRAME ISTACK, 0, STACK
        LOCFRAME PSTACK, 0, STACK
        LOCFRAME XSTACK, 11, STACK
        LOCFRAME IOVERLAY, 0, STATIC
        LOCFRAME DOVERLAY, 0, STATIC
        ARGFRAME ISTACK, 0, STACK
        ARGFRAME PSTACK, 0, STACK
        ARGFRAME XSTACK, 11, STACK
        ARGFRAME IOVERLAY, 0, STATIC
        ARGFRAME DOVERLAY, 0, STATIC
        FUNCALL SampleApp_Init, RegisterForKeys
        LOCFRAME ISTACK, 0, STACK
        LOCFRAME PSTACK, 0, STACK
        LOCFRAME XSTACK, 11, STACK
        LOCFRAME IOVERLAY, 0, STATIC
        LOCFRAME DOVERLAY, 0, STATIC
        ARGFRAME ISTACK, 0, STACK
        ARGFRAME PSTACK, 0, STACK
        ARGFRAME XSTACK, 11, STACK
        ARGFRAME IOVERLAY, 0, STATIC
        ARGFRAME DOVERLAY, 0, STATIC
        FUNCALL SampleApp_Init, sprintf
        LOCFRAME ISTACK, 0, STACK
        LOCFRAME PSTACK, 0, STACK
        LOCFRAME XSTACK, 11, STACK
        LOCFRAME IOVERLAY, 0, STATIC
        LOCFRAME DOVERLAY, 0, STATIC
        ARGFRAME ISTACK, 0, STACK
        ARGFRAME PSTACK, 0, STACK
        ARGFRAME XSTACK, 11, STACK
        ARGFRAME IOVERLAY, 0, STATIC
        ARGFRAME DOVERLAY, 0, STATIC
        FUNCALL SampleApp_Init, sprintf
        LOCFRAME ISTACK, 0, STACK
        LOCFRAME PSTACK, 0, STACK
        LOCFRAME XSTACK, 11, STACK
        LOCFRAME IOVERLAY, 0, STATIC
        LOCFRAME DOVERLAY, 0, STATIC
        ARGFRAME ISTACK, 0, STACK
        ARGFRAME PSTACK, 0, STACK
        ARGFRAME XSTACK, 11, STACK
        ARGFRAME IOVERLAY, 0, STATIC
        ARGFRAME DOVERLAY, 0, STATIC
        FUNCALL SampleApp_Init, osal_memcpy
        LOCFRAME ISTACK, 0, STACK
        LOCFRAME PSTACK, 0, STACK
        LOCFRAME XSTACK, 14, STACK
        LOCFRAME IOVERLAY, 0, STATIC
        LOCFRAME DOVERLAY, 0, STATIC
        ARGFRAME ISTACK, 0, STACK
        ARGFRAME PSTACK, 0, STACK
        ARGFRAME XSTACK, 14, STACK
        ARGFRAME IOVERLAY, 0, STATIC
        ARGFRAME DOVERLAY, 0, STATIC
        FUNCALL SampleApp_Init, aps_AddGroup
        LOCFRAME ISTACK, 0, STACK
        LOCFRAME PSTACK, 0, STACK
        LOCFRAME XSTACK, 11, STACK
        LOCFRAME IOVERLAY, 0, STATIC
        LOCFRAME DOVERLAY, 0, STATIC
        ARGFRAME ISTACK, 0, STACK
        ARGFRAME PSTACK, 0, STACK
        ARGFRAME XSTACK, 11, STACK
        ARGFRAME IOVERLAY, 0, STATIC
        ARGFRAME DOVERLAY, 0, STATIC
        FUNCALL SampleApp_Init, HalLcdWriteString
        LOCFRAME ISTACK, 0, STACK
        LOCFRAME PSTACK, 0, STACK
        LOCFRAME XSTACK, 11, STACK
        LOCFRAME IOVERLAY, 0, STATIC
        LOCFRAME DOVERLAY, 0, STATIC
        ARGFRAME ISTACK, 0, STACK
        ARGFRAME PSTACK, 0, STACK
        ARGFRAME XSTACK, 11, STACK
        ARGFRAME IOVERLAY, 0, STATIC
        ARGFRAME DOVERLAY, 0, STATIC
        FUNCALL SampleApp_Init, NLME_GetShortAddr
        LOCFRAME ISTACK, 0, STACK
        LOCFRAME PSTACK, 0, STACK
        LOCFRAME XSTACK, 11, STACK
        LOCFRAME IOVERLAY, 0, STATIC
        LOCFRAME DOVERLAY, 0, STATIC
        ARGFRAME ISTACK, 0, STACK
        ARGFRAME PSTACK, 0, STACK
        ARGFRAME XSTACK, 11, STACK
        ARGFRAME IOVERLAY, 0, STATIC
        ARGFRAME DOVERLAY, 0, STATIC
        FUNCALL SampleApp_Init, NLME_GetExtAddr
        LOCFRAME ISTACK, 0, STACK
        LOCFRAME PSTACK, 0, STACK
        LOCFRAME XSTACK, 13, STACK
        LOCFRAME IOVERLAY, 0, STATIC
        LOCFRAME DOVERLAY, 0, STATIC
        ARGFRAME ISTACK, 0, STACK
        ARGFRAME PSTACK, 0, STACK
        ARGFRAME XSTACK, 13, STACK
        ARGFRAME IOVERLAY, 0, STATIC
        ARGFRAME DOVERLAY, 0, STATIC
        FUNCALL SampleApp_Init, memcpy
        LOCFRAME ISTACK, 0, STACK
        LOCFRAME PSTACK, 0, STACK
        LOCFRAME XSTACK, 13, STACK
        LOCFRAME IOVERLAY, 0, STATIC
        LOCFRAME DOVERLAY, 0, STATIC
        ARGFRAME ISTACK, 0, STACK
        ARGFRAME PSTACK, 0, STACK
        ARGFRAME XSTACK, 13, STACK
        ARGFRAME IOVERLAY, 0, STATIC
        ARGFRAME DOVERLAY, 0, STATIC
        MOV     A,#-0xb
        LCALL   ?BANKED_ENTER_XDATA
        CFI DPH0 load(1, XDATA, add(CFA_XSP16, literal(-1)))
        CFI DPL0 load(1, XDATA, add(CFA_XSP16, literal(-2)))
        CFI ?BRET_EXT load(1, XDATA, add(CFA_XSP16, literal(-3)))
        CFI ?RET_HIGH load(1, XDATA, add(CFA_XSP16, literal(-4)))
        CFI ?RET_LOW load(1, XDATA, add(CFA_XSP16, literal(-5)))
        CFI R7 load(1, XDATA, add(CFA_XSP16, literal(-6)))
        CFI V2 load(1, XDATA, add(CFA_XSP16, literal(-7)))
        CFI V1 load(1, XDATA, add(CFA_XSP16, literal(-8)))
        CFI V0 load(1, XDATA, add(CFA_XSP16, literal(-9)))
        CFI VB load(1, XDATA, add(CFA_XSP16, literal(-10)))
        CFI R6 load(1, XDATA, add(CFA_XSP16, literal(-11)))
        CFI CFA_SP SP+0
        CFI CFA_XSP16 add(XSP16, 11)
        ; Saved register size: 11
        ; Auto size: 0
        MOV     A,R1
        MOV     R6,A
//  176   halUARTCfg_t uartConfig;
//  177   
//  178   SampleApp_TaskID = task_id;
        MOV     A,R6
        MOV     DPTR,#SampleApp_TaskID
        MOVX    @DPTR,A
//  179   SampleApp_NwkState = DEV_INIT;
        MOV     DPTR,#SampleApp_NwkState
        MOV     A,#0x1
        MOVX    @DPTR,A
//  180   
//  181   MT_UartInit();                  //串口初始化
        ; Setup parameters for call to function MT_UartInit
        LCALL   ??MT_UartInit?relay
//  182   MT_UartRegisterTaskID(task_id); //注册串口任务
        ; Setup parameters for call to function MT_UartRegisterTaskID
        MOV     ?V0 + 0,R6
        MOV     ?V0 + 1,#0x0
        MOV     R2,?V0 + 0
        MOV     R3,?V0 + 1
        LCALL   ??MT_UartRegisterTaskID?relay
//  183   afRegister( (endPointDesc_t *)&SampleApp_epDesc );
        ; Setup parameters for call to function afRegister
        MOV     R2,#SampleApp_epDesc & 0xff
        MOV     R3,#(SampleApp_epDesc >> 8) & 0xff
        LCALL   ??afRegister?relay
        MOV     A,R1
//  184   RegisterForKeys( task_id );
        ; Setup parameters for call to function RegisterForKeys
        MOV     A,R6
        MOV     R1,A
        LCALL   ??RegisterForKeys?relay
        MOV     A,R1
//  185   //逢蜂鸣器初始化
//  186   
//  187   
//  188 #ifdef ZDO_COORDINATOR
//  189   //协调器初始化
//  190   
//  191   
//  192   //默认蜂鸣器不响
//  193   //P0_5=1;
//  194   
//  195   //初始化发布的主题
//  196   //  sprintf(topics_post, "/sys/%s/%s/thing/service/switch:GetSwitchStatus",ProductKey,DeviceName);
//  197   sprintf(topics_post, "/a1xaMw4YerO/device/user/transfer");
        ; Setup parameters for call to function sprintf
        MOV     R4,#`?<Constant "/a1xaMw4YerO/device/u...">` & 0xff
        MOV     R5,#(`?<Constant "/a1xaMw4YerO/device/u...">` >> 8) & 0xff
        MOV     R2,#topics_post & 0xff
        MOV     R3,#(topics_post >> 8) & 0xff
        LCALL   ??sprintf?relay
//  198   //初始化订阅的主题
//  199   sprintf(topics_buff, "/a1xaMw4YerO/device/user/receive");
        ; Setup parameters for call to function sprintf
        MOV     R4,#`?<Constant "/a1xaMw4YerO/device/u...">_1` & 0xff
        MOV     R5,#(`?<Constant "/a1xaMw4YerO/device/u...">_1` >> 8) & 0xff
        MOV     R2,#topics_buff & 0xff
        MOV     R3,#(topics_buff >> 8) & 0xff
        LCALL   ??sprintf?relay
//  200   g_mqtt_topics_set[0]=topics_buff;
        MOV     DPTR,#g_mqtt_topics_set
        MOV     A,#topics_buff & 0xff
        MOVX    @DPTR,A
        INC     DPTR
        MOV     A,#(topics_buff >> 8) & 0xff
        MOVX    @DPTR,A
//  201 #else
//  202   
//  203   P0SEL &= ~0xa0;                 //设置P05和P07为普通IO口
//  204   P0DIR |= 0xa0;                 //P05和P07定义为输出口
//  205 #endif
//  206   
//  207   SampleApp_P2P_DstAddr.addrMode = (afAddrMode_t)Addr16Bit; //点播
        MOV     DPTR,#SampleApp_P2P_DstAddr + 8
        MOV     A,#0x2
        MOVX    @DPTR,A
//  208   SampleApp_P2P_DstAddr.endPoint = SAMPLEAPP_ENDPOINT;
        MOV     DPTR,#SampleApp_P2P_DstAddr + 9
        MOV     A,#0xb
        MOVX    @DPTR,A
//  209   SampleApp_P2P_DstAddr.addr.shortAddr = 0x0000;            //发给协调器
        MOV     DPTR,#SampleApp_P2P_DstAddr
        MOV     A,#0x0
        MOVX    @DPTR,A
        INC     DPTR
        MOV     A,#0x0
        MOVX    @DPTR,A
//  210   
//  211   // Setup for the periodic message's destination address 设置发送数据的方式和目的地址寻址模式
//  212   // Broadcast to everyone 发送模式:广播发送
//  213   SampleApp_Periodic_DstAddr.addrMode = (afAddrMode_t)AddrBroadcast;//广播
        MOV     DPTR,#SampleApp_Periodic_DstAddr + 8
        MOV     A,#0xf
        MOVX    @DPTR,A
//  214   SampleApp_Periodic_DstAddr.endPoint = SAMPLEAPP_ENDPOINT; //指定端点号
        MOV     DPTR,#SampleApp_Periodic_DstAddr + 9
        MOV     A,#0xb
        MOVX    @DPTR,A
//  215   SampleApp_Periodic_DstAddr.addr.shortAddr = 0xFFFF;//指定目的网络地址为广播地址
        MOV     DPTR,#SampleApp_Periodic_DstAddr
        MOV     A,#-0x1
        MOVX    @DPTR,A
        INC     DPTR
        MOV     A,#-0x1
        MOVX    @DPTR,A
//  216   
//  217   // By default, all devices start out in Group 1
//  218   SampleApp_Group.ID = 0x0001;//组号
        MOV     DPTR,#SampleApp_Group
        MOV     A,#0x1
        MOVX    @DPTR,A
        INC     DPTR
        MOV     A,#0x0
        MOVX    @DPTR,A
//  219   osal_memcpy( SampleApp_Group.name, "Group 1", 7  );//设定组名
        ; Setup parameters for call to function osal_memcpy
        MOV     ?V0 + 0,#`?<Constant "Group 1">` & 0xff
        MOV     ?V0 + 1,#(`?<Constant "Group 1">` >> 8) & 0xff
        MOV     ?V0 + 2,#0x0
        MOV     R0,#?V0 + 0
        LCALL   ?PUSH_XSTACK_I_THREE
        CFI CFA_XSP16 add(XSP16, 14)
        MOV     R4,#0x7
        MOV     R5,#0x0
        MOV     R2,#(SampleApp_Group + 2) & 0xff
        MOV     R3,#((SampleApp_Group + 2) >> 8) & 0xff
        LCALL   ??osal_memcpy?relay
        MOV     A,#0x3
        LCALL   ?DEALLOC_XSTACK8
        CFI CFA_XSP16 add(XSP16, 11)
//  220   aps_AddGroup( SAMPLEAPP_ENDPOINT, &SampleApp_Group );//把该组登记添加到APS中
        ; Setup parameters for call to function aps_AddGroup
        MOV     R2,#SampleApp_Group & 0xff
        MOV     R3,#(SampleApp_Group >> 8) & 0xff
        MOV     R1,#0xb
        LCALL   ??aps_AddGroup?relay
        MOV     A,R1
//  221   
//  222 #if defined ( LCD_SUPPORTED )
//  223   HalLcdWriteString( "SampleApp", HAL_LCD_LINE_1 ); //如果支持LCD，显示提示信息
        ; Setup parameters for call to function HalLcdWriteString
        MOV     R1,#0x1
        MOV     R2,#`?<Constant "SampleApp">` & 0xff
        MOV     R3,#(`?<Constant "SampleApp">` >> 8) & 0xff
        LCALL   ??HalLcdWriteString?relay
//  224 #endif
//  225   
//  226   NwkAddr = NLME_GetShortAddr();//maybe unused
        ; Setup parameters for call to function NLME_GetShortAddr
        LCALL   ??NLME_GetShortAddr?relay
        MOV     DPTR,#NwkAddr
        MOV     A,R2
        MOVX    @DPTR,A
        INC     DPTR
        MOV     A,R3
        MOVX    @DPTR,A
//  227   memcpy(MacAddr,NLME_GetExtAddr(),8);//maybe unused
        ; Setup parameters for call to function memcpy
        MOV     ?V0 + 0,#0x8
        MOV     ?V0 + 1,#0x0
        MOV     R0,#?V0 + 0
        LCALL   ?PUSH_XSTACK_I_TWO
        CFI CFA_XSP16 add(XSP16, 13)
        ; Setup parameters for call to function NLME_GetExtAddr
        LCALL   ??NLME_GetExtAddr?relay
        MOV     A,R2
        MOV     R4,A
        MOV     A,R3
        MOV     R5,A
        MOV     R2,#MacAddr & 0xff
        MOV     R3,#(MacAddr >> 8) & 0xff
        LCALL   ??memcpy?relay
        MOV     A,#0x2
        LCALL   ?DEALLOC_XSTACK8
        CFI CFA_XSP16 add(XSP16, 11)
//  228   
//  229 }
        MOV     R7,#0x3
        LJMP    ?BANKED_LEAVE_XDATA
        CFI EndBlock cfiBlock0
//  230 

        RSEG BANKED_CODE:CODE:NOROOT(0)
//  231 void SampleApp_HandleKeys( uint8 shift, uint8 keys )
SampleApp_HandleKeys:
        CFI Block cfiBlock1 Using cfiCommon0
        CFI Function SampleApp_HandleKeys
        CODE
//  232 {
        FUNCALL SampleApp_HandleKeys, SampleApp_SendPointToPointMessage
        LOCFRAME ISTACK, 0, STACK
        LOCFRAME PSTACK, 0, STACK
        LOCFRAME XSTACK, 14, STACK
        LOCFRAME IOVERLAY, 0, STATIC
        LOCFRAME DOVERLAY, 0, STATIC
        ARGFRAME ISTACK, 0, STACK
        ARGFRAME PSTACK, 0, STACK
        ARGFRAME XSTACK, 14, STACK
        ARGFRAME IOVERLAY, 0, STATIC
        ARGFRAME DOVERLAY, 0, STATIC
        FUNCALL SampleApp_HandleKeys, SampleApp_SendPointToPointMessage
        LOCFRAME ISTACK, 0, STACK
        LOCFRAME PSTACK, 0, STACK
        LOCFRAME XSTACK, 14, STACK
        LOCFRAME IOVERLAY, 0, STATIC
        LOCFRAME DOVERLAY, 0, STATIC
        ARGFRAME ISTACK, 0, STACK
        ARGFRAME PSTACK, 0, STACK
        ARGFRAME XSTACK, 14, STACK
        ARGFRAME IOVERLAY, 0, STATIC
        ARGFRAME DOVERLAY, 0, STATIC
        FUNCALL SampleApp_HandleKeys, sprintf
        LOCFRAME ISTACK, 0, STACK
        LOCFRAME PSTACK, 0, STACK
        LOCFRAME XSTACK, 10, STACK
        LOCFRAME IOVERLAY, 0, STATIC
        LOCFRAME DOVERLAY, 0, STATIC
        ARGFRAME ISTACK, 0, STACK
        ARGFRAME PSTACK, 0, STACK
        ARGFRAME XSTACK, 10, STACK
        ARGFRAME IOVERLAY, 0, STATIC
        ARGFRAME DOVERLAY, 0, STATIC
        FUNCALL SampleApp_HandleKeys, mqtt_publish_topic
        LOCFRAME ISTACK, 0, STACK
        LOCFRAME PSTACK, 0, STACK
        LOCFRAME XSTACK, 10, STACK
        LOCFRAME IOVERLAY, 0, STATIC
        LOCFRAME DOVERLAY, 0, STATIC
        ARGFRAME ISTACK, 0, STACK
        ARGFRAME PSTACK, 0, STACK
        ARGFRAME XSTACK, 10, STACK
        ARGFRAME IOVERLAY, 0, STATIC
        ARGFRAME DOVERLAY, 0, STATIC
        MOV     A,#-0xa
        LCALL   ?BANKED_ENTER_XDATA
        CFI DPH0 load(1, XDATA, add(CFA_XSP16, literal(-1)))
        CFI DPL0 load(1, XDATA, add(CFA_XSP16, literal(-2)))
        CFI ?BRET_EXT load(1, XDATA, add(CFA_XSP16, literal(-3)))
        CFI ?RET_HIGH load(1, XDATA, add(CFA_XSP16, literal(-4)))
        CFI ?RET_LOW load(1, XDATA, add(CFA_XSP16, literal(-5)))
        CFI R7 load(1, XDATA, add(CFA_XSP16, literal(-6)))
        CFI V1 load(1, XDATA, add(CFA_XSP16, literal(-7)))
        CFI V0 load(1, XDATA, add(CFA_XSP16, literal(-8)))
        CFI VB load(1, XDATA, add(CFA_XSP16, literal(-9)))
        CFI R6 load(1, XDATA, add(CFA_XSP16, literal(-10)))
        CFI CFA_SP SP+0
        CFI CFA_XSP16 add(XSP16, 10)
        ; Saved register size: 10
        ; Auto size: 0
        MOV     A,R1
        MOV     R6,A
        MOV     A,R2
        MOV     R7,A
//  233   (void)shift;  // Intentionally unreferenced parameter
//  234   
//  235 #if defined(ZDO_COORDINATOR)
//  236   
//  237   if ( keys & HAL_KEY_SW_6 )//key1
        MOV     A,R7
        MOV     C,0xE0 /* A   */.5
        JNC     ??SampleApp_HandleKeys_0
//  238   {
//  239     SampleApp_SendPointToPointMessage(DevicesShortAddr[2],0x1002,"1002 msg",16);
        ; Setup parameters for call to function SampleApp_SendPointToPointMessage
        MOV     ?V0 + 0,#0x10
        MOV     ?V0 + 1,#0x0
        MOV     R0,#?V0 + 0
        LCALL   ?PUSH_XSTACK_I_TWO
        CFI CFA_XSP16 add(XSP16, 12)
        MOV     ?V0 + 0,#`?<Constant "1002 msg">` & 0xff
        MOV     ?V0 + 1,#(`?<Constant "1002 msg">` >> 8) & 0xff
        MOV     R0,#?V0 + 0
        LCALL   ?PUSH_XSTACK_I_TWO
        CFI CFA_XSP16 add(XSP16, 14)
        MOV     R4,#0x2
        MOV     R5,#0x10
        MOV     DPTR,#DevicesShortAddr + 4
        MOVX    A,@DPTR
        MOV     R2,A
        INC     DPTR
        MOVX    A,@DPTR
        MOV     R3,A
        LCALL   ??SampleApp_SendPointToPointMessage?relay
        MOV     A,#0x4
        LCALL   ?DEALLOC_XSTACK8
        CFI CFA_XSP16 add(XSP16, 10)
//  240     //    const signed char *g_mqtt_topics[] = {"mqtt_topic_test1"};
//  241     //    if(0 == mqtt_subscribe_topic(g_mqtt_topics, 1))
//  242     //    {
//  243     //      
//  244     //    }
//  245   }
//  246   
//  247   if ( keys & HAL_KEY_SW_1 )//key2
??SampleApp_HandleKeys_0:
        MOV     A,R7
        MOV     C,0xE0 /* A   */.0
        JNC     ??SampleApp_HandleKeys_1
//  248   {
//  249     SampleApp_SendPointToPointMessage(DevicesShortAddr[2],0x1004,"1004 msg",70);
        ; Setup parameters for call to function SampleApp_SendPointToPointMessage
        MOV     ?V0 + 0,#0x46
        MOV     ?V0 + 1,#0x0
        MOV     R0,#?V0 + 0
        LCALL   ?PUSH_XSTACK_I_TWO
        CFI CFA_XSP16 add(XSP16, 12)
        MOV     ?V0 + 0,#`?<Constant "1004 msg">` & 0xff
        MOV     ?V0 + 1,#(`?<Constant "1004 msg">` >> 8) & 0xff
        MOV     R0,#?V0 + 0
        LCALL   ?PUSH_XSTACK_I_TWO
        CFI CFA_XSP16 add(XSP16, 14)
        MOV     R4,#0x4
        MOV     R5,#0x10
        MOV     DPTR,#DevicesShortAddr + 4
        MOVX    A,@DPTR
        MOV     R2,A
        INC     DPTR
        MOVX    A,@DPTR
        MOV     R3,A
        LCALL   ??SampleApp_SendPointToPointMessage?relay
        MOV     A,#0x4
        LCALL   ?DEALLOC_XSTACK8
        CFI CFA_XSP16 add(XSP16, 10)
//  250     //    if(0==SampleApp_SendPointToPointMessage(DevicesShortAddr[2],0x1004,MqttRecMsg,strlen(MqttRecMsg)))
//  251     //    {
//  252     //      memset(MqttRecMsg,0,sizeof(MqttRecMsg));
//  253     //    }
//  254     if(onenet_login_ok==2)
        MOV     DPTR,#onenet_login_ok
        MOVX    A,@DPTR
        XRL     A,#0x2
        JNZ     ??SampleApp_HandleKeys_1
//  255     {
//  256       //发送温湿度数据到onenet
//  257       //    OneNet_SendData(end_temp, end_hum);
//  258       
//  259       sprintf(mqtt_message,
//  260               "{\"method\":\"thing.service.property.set\",\"id\":\"630262306\",\"params\":{\ 
//  261                 \"code\":2,\ 
//  262     },\"version\":\"1.0.0\"}"
//  263       );
        ; Setup parameters for call to function sprintf
        MOV     R4,#`?<Constant "{\\"method\\":\\"thing.serv...">` & 0xff
        MOV     R5,#(`?<Constant "{\\"method\\":\\"thing.serv...">` >> 8) & 0xff
        MOV     R2,#mqtt_message & 0xff
        MOV     R3,#(mqtt_message >> 8) & 0xff
        LCALL   ??sprintf?relay
//  264       //HalLcdWriteString("111", HAL_LCD_LINE_1); //LCD显示
//  265       //发布主题
//  266       mqtt_publish_topic(topics_post, mqtt_message);
        ; Setup parameters for call to function mqtt_publish_topic
        MOV     R4,#mqtt_message & 0xff
        MOV     R5,#(mqtt_message >> 8) & 0xff
        MOV     R2,#topics_post & 0xff
        MOV     R3,#(topics_post >> 8) & 0xff
        LCALL   ??mqtt_publish_topic?relay
//  267       
//  268       //  OneNet_publish_topic();
//  269     }
//  270   }
//  271   
//  272 #else
//  273   if ( keys & HAL_KEY_SW_6 )//key1
//  274   {
//  275     
//  276     
//  277     SampleApp_SendPointToPointMessage(0x0000,0x1001,"1001 msg",16);
//  278     //P0_5 = 1;
//  279     //HalLcdWriteString("P0_5 = 1", HAL_LCD_LINE_3);
//  280   }
//  281   
//  282   if ( keys & HAL_KEY_SW_1 )//key2
//  283   {
//  284     
//  285     SampleApp_SendPointToPointMessage(0x0000,0x1002,"1002 msg",16);
//  286     //P0_5 = 0;
//  287     //HalLcdWriteString("P0_5 = 0", HAL_LCD_LINE_3);
//  288   }
//  289   
//  290 #endif
//  291 }
??SampleApp_HandleKeys_1:
        MOV     R7,#0x2
        LJMP    ?BANKED_LEAVE_XDATA
        CFI EndBlock cfiBlock1
//  292 
//  293 
//  294 /*********************************************************************
//  295 * @fn      SampleApp_ProcessEvent
//  296 *
//  297 * @brief   Generic Application Task event processor.
//  298 *
//  299 * @param   task_id  - The OSAL assigned task ID.
//  300 * @param   events   - Bit map of events to process.
//  301 *
//  302 * @return  Event flags of all unprocessed events.
//  303 */

        RSEG BANKED_CODE:CODE:NOROOT(0)
//  304 UINT16 SampleApp_ProcessEvent( uint8 task_id, UINT16 events )
SampleApp_ProcessEvent:
        CFI Block cfiBlock2 Using cfiCommon0
        CFI Function SampleApp_ProcessEvent
        CODE
//  305 {
        FUNCALL SampleApp_ProcessEvent, osal_msg_receive
        LOCFRAME ISTACK, 0, STACK
        LOCFRAME PSTACK, 0, STACK
        LOCFRAME XSTACK, 121, STACK
        LOCFRAME IOVERLAY, 0, STATIC
        LOCFRAME DOVERLAY, 0, STATIC
        ARGFRAME ISTACK, 0, STACK
        ARGFRAME PSTACK, 0, STACK
        ARGFRAME XSTACK, 121, STACK
        ARGFRAME IOVERLAY, 0, STATIC
        ARGFRAME DOVERLAY, 0, STATIC
        FUNCALL SampleApp_ProcessEvent, SampleApp_HandleKeys
        LOCFRAME ISTACK, 0, STACK
        LOCFRAME PSTACK, 0, STACK
        LOCFRAME XSTACK, 121, STACK
        LOCFRAME IOVERLAY, 0, STATIC
        LOCFRAME DOVERLAY, 0, STATIC
        ARGFRAME ISTACK, 0, STACK
        ARGFRAME PSTACK, 0, STACK
        ARGFRAME XSTACK, 121, STACK
        ARGFRAME IOVERLAY, 0, STATIC
        ARGFRAME DOVERLAY, 0, STATIC
        FUNCALL SampleApp_ProcessEvent, SampleApp_ProcessMSGCmd
        LOCFRAME ISTACK, 0, STACK
        LOCFRAME PSTACK, 0, STACK
        LOCFRAME XSTACK, 121, STACK
        LOCFRAME IOVERLAY, 0, STATIC
        LOCFRAME DOVERLAY, 0, STATIC
        ARGFRAME ISTACK, 0, STACK
        ARGFRAME PSTACK, 0, STACK
        ARGFRAME XSTACK, 121, STACK
        ARGFRAME IOVERLAY, 0, STATIC
        ARGFRAME DOVERLAY, 0, STATIC
        FUNCALL SampleApp_ProcessEvent, HalLcdWriteString
        LOCFRAME ISTACK, 0, STACK
        LOCFRAME PSTACK, 0, STACK
        LOCFRAME XSTACK, 121, STACK
        LOCFRAME IOVERLAY, 0, STATIC
        LOCFRAME DOVERLAY, 0, STATIC
        ARGFRAME ISTACK, 0, STACK
        ARGFRAME PSTACK, 0, STACK
        ARGFRAME XSTACK, 121, STACK
        ARGFRAME IOVERLAY, 0, STATIC
        ARGFRAME DOVERLAY, 0, STATIC
        FUNCALL SampleApp_ProcessEvent, SampleApp_getIEEEAddr
        LOCFRAME ISTACK, 0, STACK
        LOCFRAME PSTACK, 0, STACK
        LOCFRAME XSTACK, 121, STACK
        LOCFRAME IOVERLAY, 0, STATIC
        LOCFRAME DOVERLAY, 0, STATIC
        ARGFRAME ISTACK, 0, STACK
        ARGFRAME PSTACK, 0, STACK
        ARGFRAME XSTACK, 121, STACK
        ARGFRAME IOVERLAY, 0, STATIC
        ARGFRAME DOVERLAY, 0, STATIC
        FUNCALL SampleApp_ProcessEvent, HalLcdWriteString
        LOCFRAME ISTACK, 0, STACK
        LOCFRAME PSTACK, 0, STACK
        LOCFRAME XSTACK, 121, STACK
        LOCFRAME IOVERLAY, 0, STATIC
        LOCFRAME DOVERLAY, 0, STATIC
        ARGFRAME ISTACK, 0, STACK
        ARGFRAME PSTACK, 0, STACK
        ARGFRAME XSTACK, 121, STACK
        ARGFRAME IOVERLAY, 0, STATIC
        ARGFRAME DOVERLAY, 0, STATIC
        FUNCALL SampleApp_ProcessEvent, SampleApp_SendPointToPointMessage
        LOCFRAME ISTACK, 0, STACK
        LOCFRAME PSTACK, 0, STACK
        LOCFRAME XSTACK, 125, STACK
        LOCFRAME IOVERLAY, 0, STATIC
        LOCFRAME DOVERLAY, 0, STATIC
        ARGFRAME ISTACK, 0, STACK
        ARGFRAME PSTACK, 0, STACK
        ARGFRAME XSTACK, 125, STACK
        ARGFRAME IOVERLAY, 0, STATIC
        ARGFRAME DOVERLAY, 0, STATIC
        FUNCALL SampleApp_ProcessEvent, HalLcdWriteString
        LOCFRAME ISTACK, 0, STACK
        LOCFRAME PSTACK, 0, STACK
        LOCFRAME XSTACK, 121, STACK
        LOCFRAME IOVERLAY, 0, STATIC
        LOCFRAME DOVERLAY, 0, STATIC
        ARGFRAME ISTACK, 0, STACK
        ARGFRAME PSTACK, 0, STACK
        ARGFRAME XSTACK, 121, STACK
        ARGFRAME IOVERLAY, 0, STATIC
        ARGFRAME DOVERLAY, 0, STATIC
        FUNCALL SampleApp_ProcessEvent, osal_start_timerEx
        LOCFRAME ISTACK, 0, STACK
        LOCFRAME PSTACK, 0, STACK
        LOCFRAME XSTACK, 121, STACK
        LOCFRAME IOVERLAY, 0, STATIC
        LOCFRAME DOVERLAY, 0, STATIC
        ARGFRAME ISTACK, 0, STACK
        ARGFRAME PSTACK, 0, STACK
        ARGFRAME XSTACK, 121, STACK
        ARGFRAME IOVERLAY, 0, STATIC
        ARGFRAME DOVERLAY, 0, STATIC
        FUNCALL SampleApp_ProcessEvent, osal_start_timerEx
        LOCFRAME ISTACK, 0, STACK
        LOCFRAME PSTACK, 0, STACK
        LOCFRAME XSTACK, 121, STACK
        LOCFRAME IOVERLAY, 0, STATIC
        LOCFRAME DOVERLAY, 0, STATIC
        ARGFRAME ISTACK, 0, STACK
        ARGFRAME PSTACK, 0, STACK
        ARGFRAME XSTACK, 121, STACK
        ARGFRAME IOVERLAY, 0, STATIC
        ARGFRAME DOVERLAY, 0, STATIC
        FUNCALL SampleApp_ProcessEvent, osal_msg_deallocate
        LOCFRAME ISTACK, 0, STACK
        LOCFRAME PSTACK, 0, STACK
        LOCFRAME XSTACK, 121, STACK
        LOCFRAME IOVERLAY, 0, STATIC
        LOCFRAME DOVERLAY, 0, STATIC
        ARGFRAME ISTACK, 0, STACK
        ARGFRAME PSTACK, 0, STACK
        ARGFRAME XSTACK, 121, STACK
        ARGFRAME IOVERLAY, 0, STATIC
        ARGFRAME DOVERLAY, 0, STATIC
        FUNCALL SampleApp_ProcessEvent, osal_msg_receive
        LOCFRAME ISTACK, 0, STACK
        LOCFRAME PSTACK, 0, STACK
        LOCFRAME XSTACK, 121, STACK
        LOCFRAME IOVERLAY, 0, STATIC
        LOCFRAME DOVERLAY, 0, STATIC
        ARGFRAME ISTACK, 0, STACK
        ARGFRAME PSTACK, 0, STACK
        ARGFRAME XSTACK, 121, STACK
        ARGFRAME IOVERLAY, 0, STATIC
        ARGFRAME DOVERLAY, 0, STATIC
        FUNCALL SampleApp_ProcessEvent, osal_start_timerEx
        LOCFRAME ISTACK, 0, STACK
        LOCFRAME PSTACK, 0, STACK
        LOCFRAME XSTACK, 121, STACK
        LOCFRAME IOVERLAY, 0, STATIC
        LOCFRAME DOVERLAY, 0, STATIC
        ARGFRAME ISTACK, 0, STACK
        ARGFRAME PSTACK, 0, STACK
        ARGFRAME XSTACK, 121, STACK
        ARGFRAME IOVERLAY, 0, STATIC
        ARGFRAME DOVERLAY, 0, STATIC
        FUNCALL SampleApp_ProcessEvent, OneNet_DevLink
        LOCFRAME ISTACK, 0, STACK
        LOCFRAME PSTACK, 0, STACK
        LOCFRAME XSTACK, 121, STACK
        LOCFRAME IOVERLAY, 0, STATIC
        LOCFRAME DOVERLAY, 0, STATIC
        ARGFRAME ISTACK, 0, STACK
        ARGFRAME PSTACK, 0, STACK
        ARGFRAME XSTACK, 121, STACK
        ARGFRAME IOVERLAY, 0, STATIC
        ARGFRAME DOVERLAY, 0, STATIC
        FUNCALL SampleApp_ProcessEvent, HalLedBlink
        LOCFRAME ISTACK, 0, STACK
        LOCFRAME PSTACK, 0, STACK
        LOCFRAME XSTACK, 121, STACK
        LOCFRAME IOVERLAY, 0, STATIC
        LOCFRAME DOVERLAY, 0, STATIC
        ARGFRAME ISTACK, 0, STACK
        ARGFRAME PSTACK, 0, STACK
        ARGFRAME XSTACK, 121, STACK
        ARGFRAME IOVERLAY, 0, STATIC
        ARGFRAME DOVERLAY, 0, STATIC
        FUNCALL SampleApp_ProcessEvent, osal_start_timerEx
        LOCFRAME ISTACK, 0, STACK
        LOCFRAME PSTACK, 0, STACK
        LOCFRAME XSTACK, 121, STACK
        LOCFRAME IOVERLAY, 0, STATIC
        LOCFRAME DOVERLAY, 0, STATIC
        ARGFRAME ISTACK, 0, STACK
        ARGFRAME PSTACK, 0, STACK
        ARGFRAME XSTACK, 121, STACK
        ARGFRAME IOVERLAY, 0, STATIC
        ARGFRAME DOVERLAY, 0, STATIC
        FUNCALL SampleApp_ProcessEvent, onenet_mqtt_send_heart
        LOCFRAME ISTACK, 0, STACK
        LOCFRAME PSTACK, 0, STACK
        LOCFRAME XSTACK, 121, STACK
        LOCFRAME IOVERLAY, 0, STATIC
        LOCFRAME DOVERLAY, 0, STATIC
        ARGFRAME ISTACK, 0, STACK
        ARGFRAME PSTACK, 0, STACK
        ARGFRAME XSTACK, 121, STACK
        ARGFRAME IOVERLAY, 0, STATIC
        ARGFRAME DOVERLAY, 0, STATIC
        FUNCALL SampleApp_ProcessEvent, osal_start_timerEx
        LOCFRAME ISTACK, 0, STACK
        LOCFRAME PSTACK, 0, STACK
        LOCFRAME XSTACK, 121, STACK
        LOCFRAME IOVERLAY, 0, STATIC
        LOCFRAME DOVERLAY, 0, STATIC
        ARGFRAME ISTACK, 0, STACK
        ARGFRAME PSTACK, 0, STACK
        ARGFRAME XSTACK, 121, STACK
        ARGFRAME IOVERLAY, 0, STATIC
        ARGFRAME DOVERLAY, 0, STATIC
        FUNCALL SampleApp_ProcessEvent, sprintf
        LOCFRAME ISTACK, 0, STACK
        LOCFRAME PSTACK, 0, STACK
        LOCFRAME XSTACK, 127, STACK
        LOCFRAME IOVERLAY, 0, STATIC
        LOCFRAME DOVERLAY, 0, STATIC
        ARGFRAME ISTACK, 0, STACK
        ARGFRAME PSTACK, 0, STACK
        ARGFRAME XSTACK, 127, STACK
        ARGFRAME IOVERLAY, 0, STATIC
        ARGFRAME DOVERLAY, 0, STATIC
        FUNCALL SampleApp_ProcessEvent, printf
        LOCFRAME ISTACK, 0, STACK
        LOCFRAME PSTACK, 0, STACK
        LOCFRAME XSTACK, 125, STACK
        LOCFRAME IOVERLAY, 0, STATIC
        LOCFRAME DOVERLAY, 0, STATIC
        ARGFRAME ISTACK, 0, STACK
        ARGFRAME PSTACK, 0, STACK
        ARGFRAME XSTACK, 125, STACK
        ARGFRAME IOVERLAY, 0, STATIC
        ARGFRAME DOVERLAY, 0, STATIC
        FUNCALL SampleApp_ProcessEvent, osal_start_timerEx
        LOCFRAME ISTACK, 0, STACK
        LOCFRAME PSTACK, 0, STACK
        LOCFRAME XSTACK, 121, STACK
        LOCFRAME IOVERLAY, 0, STATIC
        LOCFRAME DOVERLAY, 0, STATIC
        ARGFRAME ISTACK, 0, STACK
        ARGFRAME PSTACK, 0, STACK
        ARGFRAME XSTACK, 121, STACK
        ARGFRAME IOVERLAY, 0, STATIC
        ARGFRAME DOVERLAY, 0, STATIC
        FUNCALL SampleApp_ProcessEvent, printf
        LOCFRAME ISTACK, 0, STACK
        LOCFRAME PSTACK, 0, STACK
        LOCFRAME XSTACK, 123, STACK
        LOCFRAME IOVERLAY, 0, STATIC
        LOCFRAME DOVERLAY, 0, STATIC
        ARGFRAME ISTACK, 0, STACK
        ARGFRAME PSTACK, 0, STACK
        ARGFRAME XSTACK, 123, STACK
        ARGFRAME IOVERLAY, 0, STATIC
        ARGFRAME DOVERLAY, 0, STATIC
        FUNCALL SampleApp_ProcessEvent, strstr
        LOCFRAME ISTACK, 0, STACK
        LOCFRAME PSTACK, 0, STACK
        LOCFRAME XSTACK, 121, STACK
        LOCFRAME IOVERLAY, 0, STATIC
        LOCFRAME DOVERLAY, 0, STATIC
        ARGFRAME ISTACK, 0, STACK
        ARGFRAME PSTACK, 0, STACK
        ARGFRAME XSTACK, 121, STACK
        ARGFRAME IOVERLAY, 0, STATIC
        ARGFRAME DOVERLAY, 0, STATIC
        FUNCALL SampleApp_ProcessEvent, strstr
        LOCFRAME ISTACK, 0, STACK
        LOCFRAME PSTACK, 0, STACK
        LOCFRAME XSTACK, 121, STACK
        LOCFRAME IOVERLAY, 0, STATIC
        LOCFRAME DOVERLAY, 0, STATIC
        ARGFRAME ISTACK, 0, STACK
        ARGFRAME PSTACK, 0, STACK
        ARGFRAME XSTACK, 121, STACK
        ARGFRAME IOVERLAY, 0, STATIC
        ARGFRAME DOVERLAY, 0, STATIC
        FUNCALL SampleApp_ProcessEvent, strstr
        LOCFRAME ISTACK, 0, STACK
        LOCFRAME PSTACK, 0, STACK
        LOCFRAME XSTACK, 121, STACK
        LOCFRAME IOVERLAY, 0, STATIC
        LOCFRAME DOVERLAY, 0, STATIC
        ARGFRAME ISTACK, 0, STACK
        ARGFRAME PSTACK, 0, STACK
        ARGFRAME XSTACK, 121, STACK
        ARGFRAME IOVERLAY, 0, STATIC
        ARGFRAME DOVERLAY, 0, STATIC
        FUNCALL SampleApp_ProcessEvent, strstr
        LOCFRAME ISTACK, 0, STACK
        LOCFRAME PSTACK, 0, STACK
        LOCFRAME XSTACK, 123, STACK
        LOCFRAME IOVERLAY, 0, STATIC
        LOCFRAME DOVERLAY, 0, STATIC
        ARGFRAME ISTACK, 0, STACK
        ARGFRAME PSTACK, 0, STACK
        ARGFRAME XSTACK, 123, STACK
        ARGFRAME IOVERLAY, 0, STATIC
        ARGFRAME DOVERLAY, 0, STATIC
        FUNCALL SampleApp_ProcessEvent, memcpy
        LOCFRAME ISTACK, 0, STACK
        LOCFRAME PSTACK, 0, STACK
        LOCFRAME XSTACK, 123, STACK
        LOCFRAME IOVERLAY, 0, STATIC
        LOCFRAME DOVERLAY, 0, STATIC
        ARGFRAME ISTACK, 0, STACK
        ARGFRAME PSTACK, 0, STACK
        ARGFRAME XSTACK, 123, STACK
        ARGFRAME IOVERLAY, 0, STATIC
        ARGFRAME DOVERLAY, 0, STATIC
        FUNCALL SampleApp_ProcessEvent, strstr
        LOCFRAME ISTACK, 0, STACK
        LOCFRAME PSTACK, 0, STACK
        LOCFRAME XSTACK, 121, STACK
        LOCFRAME IOVERLAY, 0, STATIC
        LOCFRAME DOVERLAY, 0, STATIC
        ARGFRAME ISTACK, 0, STACK
        ARGFRAME PSTACK, 0, STACK
        ARGFRAME XSTACK, 121, STACK
        ARGFRAME IOVERLAY, 0, STATIC
        ARGFRAME DOVERLAY, 0, STATIC
        FUNCALL SampleApp_ProcessEvent, strstr
        LOCFRAME ISTACK, 0, STACK
        LOCFRAME PSTACK, 0, STACK
        LOCFRAME XSTACK, 121, STACK
        LOCFRAME IOVERLAY, 0, STATIC
        LOCFRAME DOVERLAY, 0, STATIC
        ARGFRAME ISTACK, 0, STACK
        ARGFRAME PSTACK, 0, STACK
        ARGFRAME XSTACK, 121, STACK
        ARGFRAME IOVERLAY, 0, STATIC
        ARGFRAME DOVERLAY, 0, STATIC
        FUNCALL SampleApp_ProcessEvent, strstr
        LOCFRAME ISTACK, 0, STACK
        LOCFRAME PSTACK, 0, STACK
        LOCFRAME XSTACK, 121, STACK
        LOCFRAME IOVERLAY, 0, STATIC
        LOCFRAME DOVERLAY, 0, STATIC
        ARGFRAME ISTACK, 0, STACK
        ARGFRAME PSTACK, 0, STACK
        ARGFRAME XSTACK, 121, STACK
        ARGFRAME IOVERLAY, 0, STATIC
        ARGFRAME DOVERLAY, 0, STATIC
        FUNCALL SampleApp_ProcessEvent, strstr
        LOCFRAME ISTACK, 0, STACK
        LOCFRAME PSTACK, 0, STACK
        LOCFRAME XSTACK, 123, STACK
        LOCFRAME IOVERLAY, 0, STATIC
        LOCFRAME DOVERLAY, 0, STATIC
        ARGFRAME ISTACK, 0, STACK
        ARGFRAME PSTACK, 0, STACK
        ARGFRAME XSTACK, 123, STACK
        ARGFRAME IOVERLAY, 0, STATIC
        ARGFRAME DOVERLAY, 0, STATIC
        FUNCALL SampleApp_ProcessEvent, memcpy
        LOCFRAME ISTACK, 0, STACK
        LOCFRAME PSTACK, 0, STACK
        LOCFRAME XSTACK, 123, STACK
        LOCFRAME IOVERLAY, 0, STATIC
        LOCFRAME DOVERLAY, 0, STATIC
        ARGFRAME ISTACK, 0, STACK
        ARGFRAME PSTACK, 0, STACK
        ARGFRAME XSTACK, 123, STACK
        ARGFRAME IOVERLAY, 0, STATIC
        ARGFRAME DOVERLAY, 0, STATIC
        FUNCALL SampleApp_ProcessEvent, strstr
        LOCFRAME ISTACK, 0, STACK
        LOCFRAME PSTACK, 0, STACK
        LOCFRAME XSTACK, 121, STACK
        LOCFRAME IOVERLAY, 0, STATIC
        LOCFRAME DOVERLAY, 0, STATIC
        ARGFRAME ISTACK, 0, STACK
        ARGFRAME PSTACK, 0, STACK
        ARGFRAME XSTACK, 121, STACK
        ARGFRAME IOVERLAY, 0, STATIC
        ARGFRAME DOVERLAY, 0, STATIC
        FUNCALL SampleApp_ProcessEvent, strlen
        LOCFRAME ISTACK, 0, STACK
        LOCFRAME PSTACK, 0, STACK
        LOCFRAME XSTACK, 121, STACK
        LOCFRAME IOVERLAY, 0, STATIC
        LOCFRAME DOVERLAY, 0, STATIC
        ARGFRAME ISTACK, 0, STACK
        ARGFRAME PSTACK, 0, STACK
        ARGFRAME XSTACK, 121, STACK
        ARGFRAME IOVERLAY, 0, STATIC
        ARGFRAME DOVERLAY, 0, STATIC
        FUNCALL SampleApp_ProcessEvent, SampleApp_SendPointToPointMessage
        LOCFRAME ISTACK, 0, STACK
        LOCFRAME PSTACK, 0, STACK
        LOCFRAME XSTACK, 125, STACK
        LOCFRAME IOVERLAY, 0, STATIC
        LOCFRAME DOVERLAY, 0, STATIC
        ARGFRAME ISTACK, 0, STACK
        ARGFRAME PSTACK, 0, STACK
        ARGFRAME XSTACK, 125, STACK
        ARGFRAME IOVERLAY, 0, STATIC
        ARGFRAME DOVERLAY, 0, STATIC
        FUNCALL SampleApp_ProcessEvent, printf
        LOCFRAME ISTACK, 0, STACK
        LOCFRAME PSTACK, 0, STACK
        LOCFRAME XSTACK, 121, STACK
        LOCFRAME IOVERLAY, 0, STATIC
        LOCFRAME DOVERLAY, 0, STATIC
        ARGFRAME ISTACK, 0, STACK
        ARGFRAME PSTACK, 0, STACK
        ARGFRAME XSTACK, 121, STACK
        ARGFRAME IOVERLAY, 0, STATIC
        ARGFRAME DOVERLAY, 0, STATIC
        FUNCALL SampleApp_ProcessEvent, strstr
        LOCFRAME ISTACK, 0, STACK
        LOCFRAME PSTACK, 0, STACK
        LOCFRAME XSTACK, 121, STACK
        LOCFRAME IOVERLAY, 0, STATIC
        LOCFRAME DOVERLAY, 0, STATIC
        ARGFRAME ISTACK, 0, STACK
        ARGFRAME PSTACK, 0, STACK
        ARGFRAME XSTACK, 121, STACK
        ARGFRAME IOVERLAY, 0, STATIC
        ARGFRAME DOVERLAY, 0, STATIC
        FUNCALL SampleApp_ProcessEvent, strlen
        LOCFRAME ISTACK, 0, STACK
        LOCFRAME PSTACK, 0, STACK
        LOCFRAME XSTACK, 121, STACK
        LOCFRAME IOVERLAY, 0, STATIC
        LOCFRAME DOVERLAY, 0, STATIC
        ARGFRAME ISTACK, 0, STACK
        ARGFRAME PSTACK, 0, STACK
        ARGFRAME XSTACK, 121, STACK
        ARGFRAME IOVERLAY, 0, STATIC
        ARGFRAME DOVERLAY, 0, STATIC
        FUNCALL SampleApp_ProcessEvent, SampleApp_SendPointToPointMessage
        LOCFRAME ISTACK, 0, STACK
        LOCFRAME PSTACK, 0, STACK
        LOCFRAME XSTACK, 125, STACK
        LOCFRAME IOVERLAY, 0, STATIC
        LOCFRAME DOVERLAY, 0, STATIC
        ARGFRAME ISTACK, 0, STACK
        ARGFRAME PSTACK, 0, STACK
        ARGFRAME XSTACK, 125, STACK
        ARGFRAME IOVERLAY, 0, STATIC
        ARGFRAME DOVERLAY, 0, STATIC
        FUNCALL SampleApp_ProcessEvent, printf
        LOCFRAME ISTACK, 0, STACK
        LOCFRAME PSTACK, 0, STACK
        LOCFRAME XSTACK, 121, STACK
        LOCFRAME IOVERLAY, 0, STATIC
        LOCFRAME DOVERLAY, 0, STATIC
        ARGFRAME ISTACK, 0, STACK
        ARGFRAME PSTACK, 0, STACK
        ARGFRAME XSTACK, 121, STACK
        ARGFRAME IOVERLAY, 0, STATIC
        ARGFRAME DOVERLAY, 0, STATIC
        FUNCALL SampleApp_ProcessEvent, strstr
        LOCFRAME ISTACK, 0, STACK
        LOCFRAME PSTACK, 0, STACK
        LOCFRAME XSTACK, 121, STACK
        LOCFRAME IOVERLAY, 0, STATIC
        LOCFRAME DOVERLAY, 0, STATIC
        ARGFRAME ISTACK, 0, STACK
        ARGFRAME PSTACK, 0, STACK
        ARGFRAME XSTACK, 121, STACK
        ARGFRAME IOVERLAY, 0, STATIC
        ARGFRAME DOVERLAY, 0, STATIC
        FUNCALL SampleApp_ProcessEvent, strlen
        LOCFRAME ISTACK, 0, STACK
        LOCFRAME PSTACK, 0, STACK
        LOCFRAME XSTACK, 121, STACK
        LOCFRAME IOVERLAY, 0, STATIC
        LOCFRAME DOVERLAY, 0, STATIC
        ARGFRAME ISTACK, 0, STACK
        ARGFRAME PSTACK, 0, STACK
        ARGFRAME XSTACK, 121, STACK
        ARGFRAME IOVERLAY, 0, STATIC
        ARGFRAME DOVERLAY, 0, STATIC
        FUNCALL SampleApp_ProcessEvent, SampleApp_SendPointToPointMessage
        LOCFRAME ISTACK, 0, STACK
        LOCFRAME PSTACK, 0, STACK
        LOCFRAME XSTACK, 125, STACK
        LOCFRAME IOVERLAY, 0, STATIC
        LOCFRAME DOVERLAY, 0, STATIC
        ARGFRAME ISTACK, 0, STACK
        ARGFRAME PSTACK, 0, STACK
        ARGFRAME XSTACK, 125, STACK
        ARGFRAME IOVERLAY, 0, STATIC
        ARGFRAME DOVERLAY, 0, STATIC
        FUNCALL SampleApp_ProcessEvent, printf
        LOCFRAME ISTACK, 0, STACK
        LOCFRAME PSTACK, 0, STACK
        LOCFRAME XSTACK, 121, STACK
        LOCFRAME IOVERLAY, 0, STATIC
        LOCFRAME DOVERLAY, 0, STATIC
        ARGFRAME ISTACK, 0, STACK
        ARGFRAME PSTACK, 0, STACK
        ARGFRAME XSTACK, 121, STACK
        ARGFRAME IOVERLAY, 0, STATIC
        ARGFRAME DOVERLAY, 0, STATIC
        FUNCALL SampleApp_ProcessEvent, strstr
        LOCFRAME ISTACK, 0, STACK
        LOCFRAME PSTACK, 0, STACK
        LOCFRAME XSTACK, 121, STACK
        LOCFRAME IOVERLAY, 0, STATIC
        LOCFRAME DOVERLAY, 0, STATIC
        ARGFRAME ISTACK, 0, STACK
        ARGFRAME PSTACK, 0, STACK
        ARGFRAME XSTACK, 121, STACK
        ARGFRAME IOVERLAY, 0, STATIC
        ARGFRAME DOVERLAY, 0, STATIC
        FUNCALL SampleApp_ProcessEvent, strlen
        LOCFRAME ISTACK, 0, STACK
        LOCFRAME PSTACK, 0, STACK
        LOCFRAME XSTACK, 121, STACK
        LOCFRAME IOVERLAY, 0, STATIC
        LOCFRAME DOVERLAY, 0, STATIC
        ARGFRAME ISTACK, 0, STACK
        ARGFRAME PSTACK, 0, STACK
        ARGFRAME XSTACK, 121, STACK
        ARGFRAME IOVERLAY, 0, STATIC
        ARGFRAME DOVERLAY, 0, STATIC
        FUNCALL SampleApp_ProcessEvent, SampleApp_SendPointToPointMessage
        LOCFRAME ISTACK, 0, STACK
        LOCFRAME PSTACK, 0, STACK
        LOCFRAME XSTACK, 125, STACK
        LOCFRAME IOVERLAY, 0, STATIC
        LOCFRAME DOVERLAY, 0, STATIC
        ARGFRAME ISTACK, 0, STACK
        ARGFRAME PSTACK, 0, STACK
        ARGFRAME XSTACK, 125, STACK
        ARGFRAME IOVERLAY, 0, STATIC
        ARGFRAME DOVERLAY, 0, STATIC
        FUNCALL SampleApp_ProcessEvent, printf
        LOCFRAME ISTACK, 0, STACK
        LOCFRAME PSTACK, 0, STACK
        LOCFRAME XSTACK, 121, STACK
        LOCFRAME IOVERLAY, 0, STATIC
        LOCFRAME DOVERLAY, 0, STATIC
        ARGFRAME ISTACK, 0, STACK
        ARGFRAME PSTACK, 0, STACK
        ARGFRAME XSTACK, 121, STACK
        ARGFRAME IOVERLAY, 0, STATIC
        ARGFRAME DOVERLAY, 0, STATIC
        FUNCALL SampleApp_ProcessEvent, osal_memset
        LOCFRAME ISTACK, 0, STACK
        LOCFRAME PSTACK, 0, STACK
        LOCFRAME XSTACK, 121, STACK
        LOCFRAME IOVERLAY, 0, STATIC
        LOCFRAME DOVERLAY, 0, STATIC
        ARGFRAME ISTACK, 0, STACK
        ARGFRAME PSTACK, 0, STACK
        ARGFRAME XSTACK, 121, STACK
        ARGFRAME IOVERLAY, 0, STATIC
        ARGFRAME DOVERLAY, 0, STATIC
        MOV     A,#-0xe
        LCALL   ?BANKED_ENTER_XDATA
        CFI DPH0 load(1, XDATA, add(CFA_XSP16, literal(-1)))
        CFI DPL0 load(1, XDATA, add(CFA_XSP16, literal(-2)))
        CFI ?BRET_EXT load(1, XDATA, add(CFA_XSP16, literal(-3)))
        CFI ?RET_HIGH load(1, XDATA, add(CFA_XSP16, literal(-4)))
        CFI ?RET_LOW load(1, XDATA, add(CFA_XSP16, literal(-5)))
        CFI R7 load(1, XDATA, add(CFA_XSP16, literal(-6)))
        CFI V5 load(1, XDATA, add(CFA_XSP16, literal(-7)))
        CFI V4 load(1, XDATA, add(CFA_XSP16, literal(-8)))
        CFI V3 load(1, XDATA, add(CFA_XSP16, literal(-9)))
        CFI V2 load(1, XDATA, add(CFA_XSP16, literal(-10)))
        CFI V1 load(1, XDATA, add(CFA_XSP16, literal(-11)))
        CFI V0 load(1, XDATA, add(CFA_XSP16, literal(-12)))
        CFI VB load(1, XDATA, add(CFA_XSP16, literal(-13)))
        CFI R6 load(1, XDATA, add(CFA_XSP16, literal(-14)))
        CFI CFA_SP SP+0
        CFI CFA_XSP16 add(XSP16, 14)
        ; Saved register size: 14
        ; Auto size: 107
        MOV     A,#-0x6b
        LCALL   ?ALLOC_XSTACK8
        CFI CFA_XSP16 add(XSP16, 121)
        MOV     ?V0 + 2,R1
        MOV     A,R2
        MOV     R6,A
        MOV     A,R3
        MOV     R7,A
//  306   (void)task_id;  // Intentionally unreferenced parameter
//  307   
//  308   if ( events & SYS_EVENT_MSG )
        MOV     A,R6
        ANL     A,#0x0
        MOV     R0,A
        MOV     A,R7
        ANL     A,#0x80
        MOV     R1,A
        MOV     A,R0
        ORL     A,R1
        JNZ     $+5
        LJMP    ??SampleApp_ProcessEvent_0 & 0xFFFF
//  309   {
//  310     afIncomingMSGPacket_t *MSGpkt;
//  311     
//  312     while ( (MSGpkt = (afIncomingMSGPacket_t *)osal_msg_receive( SampleApp_TaskID )) )
??SampleApp_ProcessEvent_1:
        ; Setup parameters for call to function osal_msg_receive
        MOV     DPTR,#SampleApp_TaskID
        MOVX    A,@DPTR
        MOV     R1,A
        LCALL   ??osal_msg_receive?relay
        MOV     ?V0 + 4,R2
        MOV     ?V0 + 5,R3
        MOV     R0,?V0 + 4
        MOV     R1,?V0 + 5
        MOV     ?V0 + 0,R0
        MOV     ?V0 + 1,R1
        MOV     A,R0
        ORL     A,R1
        JNZ     $+5
        LJMP    ??SampleApp_ProcessEvent_2 & 0xFFFF
//  313     {
//  314       switch ( MSGpkt->hdr.event )
        MOV     DPL,?V0 + 0
        MOV     DPH,?V0 + 1
        MOVX    A,@DPTR
        ADD     A,#-0x1a
        JZ      ??SampleApp_ProcessEvent_3
        ADD     A,#0x5a
        JZ      ??SampleApp_ProcessEvent_4
        ADD     A,#-0x11
        JZ      ??SampleApp_ProcessEvent_5
        LJMP    ??SampleApp_ProcessEvent_6 & 0xFFFF
//  315       {
//  316       case KEY_CHANGE:
//  317         SampleApp_HandleKeys( ((keyChange_t *)MSGpkt)->state, ((keyChange_t *)MSGpkt)->keys );
??SampleApp_ProcessEvent_4:
        ; Setup parameters for call to function SampleApp_HandleKeys
        MOV     DPL,?V0 + 0
        MOV     DPH,?V0 + 1
        INC     DPTR
        INC     DPTR
        INC     DPTR
        MOVX    A,@DPTR
        MOV     R2,A
        MOV     DPL,?V0 + 0
        MOV     DPH,?V0 + 1
        INC     DPTR
        INC     DPTR
        MOVX    A,@DPTR
        MOV     R1,A
        LCALL   ??SampleApp_HandleKeys?relay
//  318         break;
        LJMP    ??SampleApp_ProcessEvent_6 & 0xFFFF
//  319         
//  320       case AF_INCOMING_MSG_CMD:
//  321         SampleApp_ProcessMSGCmd( MSGpkt );
??SampleApp_ProcessEvent_3:
        ; Setup parameters for call to function SampleApp_ProcessMSGCmd
        MOV     R2,?V0 + 0
        MOV     R3,?V0 + 1
        LCALL   ??SampleApp_ProcessMSGCmd?relay
//  322         break;
        LJMP    ??SampleApp_ProcessEvent_6 & 0xFFFF
//  323         
//  324       case ZDO_STATE_CHANGE:
//  325         {
//  326           
//  327           /////////////////////////////////////
//  328 #ifdef ZDO_COORDINATOR
//  329           SampleApp_NwkState = (zdoStatus_t)(MSGpkt->hdr.status);
??SampleApp_ProcessEvent_5:
        MOV     DPL,?V0 + 0
        MOV     DPH,?V0 + 1
        INC     DPTR
        MOVX    A,@DPTR
        MOV     DPTR,#SampleApp_NwkState
        MOVX    @DPTR,A
//  330 #else
//  331           SampleApp_NwkState = (devStates_t)(MSGpkt->hdr.status);
//  332 #endif
//  333           ////////////////////////////////////////// 
//  334           if ( (SampleApp_NwkState == DEV_ROUTER) || (SampleApp_NwkState == DEV_END_DEVICE) )
        MOV     DPTR,#SampleApp_NwkState
        MOVX    A,@DPTR
        XRL     A,#0x7
        JZ      ??SampleApp_ProcessEvent_7
        MOV     DPTR,#SampleApp_NwkState
        MOVX    A,@DPTR
        XRL     A,#0x6
        JNZ     ??SampleApp_ProcessEvent_8
//  335           {
//  336             // Start sending the periodic message in a regular interval.
//  337             //这个定时器只是为发送周期信息开启的，设备启动初始化后从这里开始
//  338             //触发第一个周期信息的发送，然后周而复始下去
//  339             if(SampleApp_NwkState == DEV_END_DEVICE)//如果本机作为终端设备接入，尝试向协调器发送本机IEEE,但协调器如何判断接收到的数据是终端的IEEE呢？
??SampleApp_ProcessEvent_7:
        MOV     DPTR,#SampleApp_NwkState
        MOVX    A,@DPTR
        XRL     A,#0x6
        JNZ     ??SampleApp_ProcessEvent_9
//  340             {                                       //考虑数据包前4位设置为识别码，接受方通过识别码判断信息类型
//  341               HalLcdWriteString("get coord", HAL_LCD_LINE_1); //LCD显示
        ; Setup parameters for call to function HalLcdWriteString
        MOV     R1,#0x1
        MOV     R2,#`?<Constant "get coord">` & 0xff
        MOV     R3,#(`?<Constant "get coord">` >> 8) & 0xff
        LCALL   ??HalLcdWriteString?relay
//  342               uint8 IEEEAdr[Z_EXTADDR_LEN*2+1];
//  343               SampleApp_getIEEEAddr(IEEEAdr);
        ; Setup parameters for call to function SampleApp_getIEEEAddr
        MOV     A,#0x32
        LCALL   ?XSTACK_DISP0_8
        MOV     R2,DPL
        MOV     R3,DPH
        LCALL   ??SampleApp_getIEEEAddr?relay
//  344               HalLcdWriteString(IEEEAdr, HAL_LCD_LINE_3); //LCD显示
        ; Setup parameters for call to function HalLcdWriteString
        MOV     R1,#0x3
        MOV     A,#0x32
        LCALL   ?XSTACK_DISP0_8
        MOV     R2,DPL
        MOV     R3,DPH
        LCALL   ??HalLcdWriteString?relay
//  345               SampleApp_SendPointToPointMessage(0x0000,0x1003,IEEEAdr,16);//0x1003代表终端接入时发送的IEEE事件
        ; Setup parameters for call to function SampleApp_SendPointToPointMessage
        MOV     ?V0 + 4,#0x10
        MOV     ?V0 + 5,#0x0
        MOV     R0,#?V0 + 4
        LCALL   ?PUSH_XSTACK_I_TWO
        CFI CFA_XSP16 add(XSP16, 123)
        MOV     A,#0x34
        LCALL   ?XSTACK_DISP0_8
        MOV     ?V0 + 4,DPL
        MOV     ?V0 + 5,DPH
        MOV     R0,#?V0 + 4
        LCALL   ?PUSH_XSTACK_I_TWO
        CFI CFA_XSP16 add(XSP16, 125)
        MOV     R4,#0x3
        MOV     R5,#0x10
        MOV     R2,#0x0
        MOV     R3,#0x0
        LCALL   ??SampleApp_SendPointToPointMessage?relay
        MOV     A,#0x4
        LCALL   ?DEALLOC_XSTACK8
        CFI CFA_XSP16 add(XSP16, 121)
        SJMP    ??SampleApp_ProcessEvent_9
//  346             } 
//  347           }else if(SampleApp_NwkState == DEV_NWK_ORPHAN)
??SampleApp_ProcessEvent_8:
        MOV     DPTR,#SampleApp_NwkState
        MOVX    A,@DPTR
        XRL     A,#0xa
        JNZ     ??SampleApp_ProcessEvent_9
//  348           {
//  349             HalLcdWriteString("lost coord", HAL_LCD_LINE_1); //LCD显示
        ; Setup parameters for call to function HalLcdWriteString
        MOV     R1,#0x1
        MOV     R2,#`?<Constant "lost coord">` & 0xff
        MOV     R3,#(`?<Constant "lost coord">` >> 8) & 0xff
        LCALL   ??HalLcdWriteString?relay
//  350           }
//  351           //该处需增加终端离线时触发的事件，尚未查询到如何添加
//  352           osal_start_timerEx( SampleApp_TaskID,
//  353                              SAMPLEAPP_SEND_PERIODIC_MSG_EVT,
//  354                              SAMPLEAPP_SEND_PERIODIC_MSG_TIMEOUT );
??SampleApp_ProcessEvent_9:
        ; Setup parameters for call to function osal_start_timerEx
        MOV     R4,#-0x48
        MOV     R5,#0xb
        MOV     R2,#0x1
        MOV     R3,#0x0
        MOV     DPTR,#SampleApp_TaskID
        MOVX    A,@DPTR
        MOV     R1,A
        LCALL   ??osal_start_timerEx?relay
        MOV     A,R1
//  355           ///////////////////////////////////////////    
//  356 #ifdef ZDO_COORDINATOR
//  357           if(!flag_COOR_CHECK_or_ENDDEV_HEART_BEAT_EVT)
        MOV     DPTR,#flag_COOR_CHECK_or_ENDDEV_HEART_BEAT_EVT
        MOVX    A,@DPTR
        JNZ     ??SampleApp_ProcessEvent_6
//  358           {          
//  359             osal_start_timerEx( SampleApp_TaskID,SAMPLEAPP_COOR_CHECK_DEV_EVT,1000);    //2后检测设备在线状态 
        ; Setup parameters for call to function osal_start_timerEx
        MOV     R4,#-0x18
        MOV     R5,#0x3
        MOV     R2,#0x10
        MOV     R3,#0x0
        MOV     DPTR,#SampleApp_TaskID
        MOVX    A,@DPTR
        MOV     R1,A
        LCALL   ??osal_start_timerEx?relay
        MOV     A,R1
//  360             flag_COOR_CHECK_or_ENDDEV_HEART_BEAT_EVT = true;
        MOV     DPTR,#flag_COOR_CHECK_or_ENDDEV_HEART_BEAT_EVT
        MOV     A,#0x1
        MOVX    @DPTR,A
//  361           }
//  362 #else
//  363           if(!flag_COOR_CHECK_or_ENDDEV_HEART_BEAT_EVT)
//  364           {  
//  365             osal_start_timerEx( SampleApp_TaskID,SAMPLEAPP_ENDDEV_HEART_BEAT_EVT,2000);    //2s后发送一次心跳包到协调器 
//  366             flag_COOR_CHECK_or_ENDDEV_HEART_BEAT_EVT = true;
//  367           }
//  368 #endif
//  369           //////////////////////////////////////   
//  370           //        }
//  371           //        else if(SampleApp_NwkState == DEV_ZB_COORD)
//  372           //        {
//  373           //          osal_start_timerEx( SampleApp_TaskID,
//  374           //                             SAMPLEAPP_SEND_PERIODIC_MSG_EVT,
//  375           //                             SAMPLEAPP_SEND_PERIODIC_MSG_TIMEOUT );
//  376           //        }
//  377         }break;
//  378         
//  379       default:
//  380         break;
//  381       }
//  382       
//  383       // Release the memory 事件处理完了，释放消息占用的内存
//  384       osal_msg_deallocate( (uint8 *)MSGpkt );
??SampleApp_ProcessEvent_6:
        ; Setup parameters for call to function osal_msg_deallocate
        MOV     R2,?V0 + 0
        MOV     R3,?V0 + 1
        LCALL   ??osal_msg_deallocate?relay
        MOV     A,R1
//  385       // Next - if one is available 指针指向下一个放在缓冲区的待处理的事件，
//  386       //返回while ( MSGpkt )重新处理事件，直到缓冲区没有等待处理事件为止
//  387       MSGpkt = (afIncomingMSGPacket_t *)osal_msg_receive( SampleApp_TaskID );
        ; Setup parameters for call to function osal_msg_receive
        MOV     DPTR,#SampleApp_TaskID
        MOVX    A,@DPTR
        MOV     R1,A
        LCALL   ??osal_msg_receive?relay
        MOV     ?V0 + 4,R2
        MOV     ?V0 + 5,R3
        MOV     ?V0 + 0,?V0 + 4
        MOV     ?V0 + 1,?V0 + 5
        LJMP    ??SampleApp_ProcessEvent_1 & 0xFFFF
//  388     }
//  389     
//  390     return ( events ^ SYS_EVENT_MSG );
??SampleApp_ProcessEvent_2:
        MOV     A,R6
        XRL     A,#0x0
        MOV     R2,A
        MOV     A,R7
        XRL     A,#0x80
        MOV     R3,A
        LJMP    ??SampleApp_ProcessEvent_10 & 0xFFFF
//  391   }
//  392   
//  393 #ifdef ZDO_COORDINATOR
//  394   
//  395   //定时器时间到
//  396   if ( events & SAMPLEAPP_SEND_PERIODIC_MSG_EVT )
??SampleApp_ProcessEvent_0:
        MOV     A,R6
        MOV     C,0xE0 /* A   */.0
        JNC     ??SampleApp_ProcessEvent_11
//  397   {
//  398     //osal_start_timerEx( SampleApp_TaskID,SAMPLEAPP_COOR_CHECK_DEV_EVT,2000);    //2后检测设备在线状态 
//  399     if(onenet_login_ok==2)
        MOV     DPTR,#onenet_login_ok
        MOVX    A,@DPTR
        XRL     A,#0x2
        JNZ     ??SampleApp_ProcessEvent_12
//  400     {
//  401       //如果接入onenet成功，启动心跳和发送数据定A器
//  402       
//  403       P1_1=0;//点亮D2
        CLR     0x90.1
//  404       
//  405       
//  406       // 启动心跳定时器，15秒一次
//  407       osal_start_timerEx( SampleApp_TaskID, SAMPLEAPP_ONENET_HEART_BEAT_EVT,15000 );
        ; Setup parameters for call to function osal_start_timerEx
        MOV     R4,#-0x68
        MOV     R5,#0x3a
        MOV     R2,#0x2
        MOV     R3,#0x0
        MOV     DPTR,#SampleApp_TaskID
        MOVX    A,@DPTR
        MOV     R1,A
        LCALL   ??osal_start_timerEx?relay
        MOV     A,R1
        SJMP    ??SampleApp_ProcessEvent_13
//  408       
//  409       // 启动发送数据定时器，5秒一次
//  410       //osal_start_timerEx( SampleApp_TaskID, SAMPLEAPP_ONENET_SEND_DATA_EVT,5000 );
//  411     }
//  412     else
//  413     {
//  414       onenet_login_ok=1;//onenet注册成功 0:未注册，1：注册中　2：注册成功
??SampleApp_ProcessEvent_12:
        MOV     DPTR,#onenet_login_ok
        MOV     A,#0x1
        MOVX    @DPTR,A
//  415       SampleApp_RxLen=0;
        MOV     DPTR,#SampleApp_RxLen
        MOV     A,#0x0
        MOVX    @DPTR,A
        INC     DPTR
        MOV     A,#0x0
        MOVX    @DPTR,A
//  416       
//  417       //如果没有接入onenet成功，重新发起接入
//  418       OneNet_DevLink();//接入onenet服务器
        ; Setup parameters for call to function OneNet_DevLink
        LCALL   ??OneNet_DevLink?relay
//  419       
//  420       //LED2闪，表示正在接入onenet
//  421       HalLedBlink (HAL_LED_2, 5, 50, 500);
        ; Setup parameters for call to function HalLedBlink
        MOV     R4,#-0xc
        MOV     R5,#0x1
        MOV     R3,#0x32
        MOV     R2,#0x5
        MOV     R1,#0x2
        LCALL   ??HalLedBlink?relay
//  422       
//  423       // 每5秒尝试接入一次
//  424       osal_start_timerEx( SampleApp_TaskID, SAMPLEAPP_SEND_PERIODIC_MSG_EVT,5000 );
        ; Setup parameters for call to function osal_start_timerEx
        MOV     R4,#-0x78
        MOV     R5,#0x13
        MOV     R2,#0x1
        MOV     R3,#0x0
        MOV     DPTR,#SampleApp_TaskID
        MOVX    A,@DPTR
        MOV     R1,A
        LCALL   ??osal_start_timerEx?relay
        MOV     A,R1
//  425     }
//  426     
//  427     
//  428     // return unprocessed events
//  429     return (events ^ SAMPLEAPP_SEND_PERIODIC_MSG_EVT);
??SampleApp_ProcessEvent_13:
        MOV     A,R6
        XRL     A,#0x1
        MOV     R2,A
        MOV     A,R7
        XRL     A,#0x0
        MOV     R3,A
        LJMP    ??SampleApp_ProcessEvent_10 & 0xFFFF
//  430   }
//  431   
//  432   
//  433   //心跳定时器时间到
//  434   if ( events & SAMPLEAPP_ONENET_HEART_BEAT_EVT )
??SampleApp_ProcessEvent_11:
        MOV     A,R6
        ANL     A,#0x2
        JZ      ??SampleApp_ProcessEvent_14
//  435   {
//  436     if(onenet_login_ok==2)
        MOV     DPTR,#onenet_login_ok
        MOVX    A,@DPTR
        XRL     A,#0x2
        JNZ     ??SampleApp_ProcessEvent_15
//  437     {
//  438       //发送心跳
//  439       onenet_mqtt_send_heart();
        ; Setup parameters for call to function onenet_mqtt_send_heart
        LCALL   ??onenet_mqtt_send_heart?relay
//  440     }
//  441     
//  442     // 启动心跳定时器，15秒一次
//  443     osal_start_timerEx( SampleApp_TaskID, SAMPLEAPP_ONENET_HEART_BEAT_EVT,15000 );
??SampleApp_ProcessEvent_15:
        ; Setup parameters for call to function osal_start_timerEx
        MOV     R4,#-0x68
        MOV     R5,#0x3a
        MOV     R2,#0x2
        MOV     R3,#0x0
        MOV     DPTR,#SampleApp_TaskID
        MOVX    A,@DPTR
        MOV     R1,A
        LCALL   ??osal_start_timerEx?relay
        MOV     A,R1
//  444     
//  445     
//  446     // return unprocessed events
//  447     return (events ^ SAMPLEAPP_ONENET_HEART_BEAT_EVT);
        MOV     A,R6
        XRL     A,#0x2
        MOV     R2,A
        MOV     A,R7
        XRL     A,#0x0
        MOV     R3,A
        LJMP    ??SampleApp_ProcessEvent_10 & 0xFFFF
//  448   }
//  449   
//  450   
//  451   //发送数据定时器时间到
//  452   if ( events & SAMPLEAPP_ONENET_SEND_DATA_EVT )
??SampleApp_ProcessEvent_14:
        MOV     A,R6
        ANL     A,#0x4
        JZ      ??SampleApp_ProcessEvent_16
//  453   {
//  454     if(onenet_login_ok==2)
        MOV     DPTR,#onenet_login_ok
        MOVX    A,@DPTR
        XRL     A,#0x2
        JNZ     ??SampleApp_ProcessEvent_17
//  455     {
//  456       //发送温湿度数据到onenet
//  457       //    OneNet_SendData(end_temp, end_hum);
//  458       
//  459       sprintf(mqtt_message,"{\"flow\":201,\ 
//  460         \"msg\":{\ 
//  461           \"dev1\":%d,\ 
//  462             \"dev2\":%d,\ 
//  463               \"dev3\":%d,\ 
//  464     }}",
//  465     devicesOnlineStatus[0],
//  466     devicesOnlineStatus[1],
//  467     devicesOnlineStatus[2]
//  468       );      //该位置数据包应更改为终端数据汇总，汇总后综合发送至mqtt。
        ; Setup parameters for call to function sprintf
        MOV     DPTR,#devicesOnlineStatus + 4
        LCALL   ?PUSH_XSTACK8_X_TWO
        CFI CFA_XSP16 add(XSP16, 123)
        MOV     DPTR,#devicesOnlineStatus + 2
        LCALL   ?PUSH_XSTACK8_X_TWO
        CFI CFA_XSP16 add(XSP16, 125)
        MOV     DPTR,#devicesOnlineStatus
        LCALL   ?PUSH_XSTACK8_X_TWO
        CFI CFA_XSP16 add(XSP16, 127)
        MOV     R4,#`?<Constant "{\\"flow\\":201,        \\"...">` & 0xff
        MOV     R5,#(`?<Constant "{\\"flow\\":201,        \\"...">` >> 8) & 0xff
        MOV     R2,#mqtt_message & 0xff
        MOV     R3,#(mqtt_message >> 8) & 0xff
        LCALL   ??sprintf?relay
        MOV     A,#0x6
        LCALL   ?DEALLOC_XSTACK8
        CFI CFA_XSP16 add(XSP16, 121)
//  469       
//  470       //发布主题
//  471       //mqtt_publish_topic(topics_post, mqtt_message);
//  472       
//  473       //  OneNet_publish_topic();
//  474     }
//  475     
//  476     // 启动发送数据定时器，5秒一次发送终端数据汇总
//  477     //osal_start_timerEx( SampleApp_TaskID, SAMPLEAPP_ONENET_SEND_DATA_EVT,5000 );
//  478     
//  479     
//  480     // return unprocessed events
//  481     return (events ^ SAMPLEAPP_ONENET_SEND_DATA_EVT);
??SampleApp_ProcessEvent_17:
        MOV     A,R6
        XRL     A,#0x4
        MOV     R2,A
        MOV     A,R7
        XRL     A,#0x0
        MOV     R3,A
        LJMP    ??SampleApp_ProcessEvent_10 & 0xFFFF
//  482   }
//  483   if ( events & SAMPLEAPP_COOR_CHECK_DEV_EVT )//协调器定时检查设备在线状态
??SampleApp_ProcessEvent_16:
        MOV     A,R6
        ANL     A,#0x10
        JNZ     $+5
        LJMP    ??SampleApp_ProcessEvent_18 & 0xFFFF
//  484   {
//  485     uint8 buff[40]={0};
        MOV     DPTR,#`?<Constant {0}>`
        PUSH    DPL
        CFI CFA_SP SP+-1
        PUSH    DPH
        CFI CFA_SP SP+-2
        MOV     A,#0x43
        LCALL   ?XSTACK_DISP0_8
        MOV     R4,DPL
        MOV     R5,DPH
        POP     DPH
        CFI CFA_SP SP+-1
        POP     DPL
        CFI CFA_SP SP+0
        MOV     A,#0x28
        LCALL   ?MOVE_LONG8_XDATA_XDATA
//  486     
//  487     for(int i=0;i<sizeof(devicesOnline)/sizeof(devicesOnline[0]);i++)
        MOV     ?V0 + 0,#0x0
        MOV     ?V0 + 1,#0x0
??SampleApp_ProcessEvent_19:
        CLR     C
        MOV     A,?V0 + 0
        SUBB    A,#0x4
        MOV     A,?V0 + 1
        SUBB    A,#0x0
        JC      $+5
        LJMP    ??SampleApp_ProcessEvent_20 & 0xFFFF
//  488     {
//  489       devicesOnlineStatus[i] = devicesOnline[i];
        MOV     R0,?V0 + 0
        MOV     R1,?V0 + 1
        MOV     A,R0
        MOV     B,#0x2
        MUL     AB
        XCH     A,R0
        MOV     R2,B
        MOV     B,#0x0
        MUL     AB
        ADD     A,R2
        MOV     R2,A
        MOV     B,#0x2
        MOV     A,?V0 + 1
        MUL     AB
        ADD     A,R2
        MOV     R1,A
        MOV     A,#devicesOnline & 0xff
        ADD     A,R0
        MOV     DPL,A
        MOV     A,#(devicesOnline >> 8) & 0xff
        ADDC    A,R1
        MOV     DPH,A
        MOVX    A,@DPTR
        MOV     R2,A
        INC     DPTR
        MOVX    A,@DPTR
        MOV     R3,A
        MOV     R0,?V0 + 0
        MOV     R1,?V0 + 1
        MOV     A,R0
        MOV     B,#0x2
        MUL     AB
        XCH     A,R0
        MOV     R4,B
        MOV     B,#0x0
        MUL     AB
        ADD     A,R4
        MOV     R4,A
        MOV     B,#0x2
        MOV     A,?V0 + 1
        MUL     AB
        ADD     A,R4
        MOV     R1,A
        MOV     A,#devicesOnlineStatus & 0xff
        ADD     A,R0
        MOV     DPL,A
        MOV     A,#(devicesOnlineStatus >> 8) & 0xff
        ADDC    A,R1
        MOV     DPH,A
        MOV     A,R2
        MOVX    @DPTR,A
        INC     DPTR
        MOV     A,R3
        MOVX    @DPTR,A
//  490       devicesOnline[i]=0;
        MOV     R0,?V0 + 0
        MOV     R1,?V0 + 1
        MOV     A,R0
        MOV     B,#0x2
        MUL     AB
        XCH     A,R0
        MOV     R2,B
        MOV     B,#0x0
        MUL     AB
        ADD     A,R2
        MOV     R2,A
        MOV     B,#0x2
        MOV     A,?V0 + 1
        MUL     AB
        ADD     A,R2
        MOV     R1,A
        MOV     A,#devicesOnline & 0xff
        ADD     A,R0
        MOV     DPL,A
        MOV     A,#(devicesOnline >> 8) & 0xff
        ADDC    A,R1
        MOV     DPH,A
        MOV     A,#0x0
        MOVX    @DPTR,A
        INC     DPTR
        MOV     A,#0x0
        MOVX    @DPTR,A
//  491       printf("device%d %d\n",i,devicesOnlineStatus[i]);
        ; Setup parameters for call to function printf
        MOV     R0,?V0 + 0
        MOV     R1,?V0 + 1
        MOV     A,R0
        MOV     B,#0x2
        MUL     AB
        XCH     A,R0
        MOV     R2,B
        MOV     B,#0x0
        MUL     AB
        ADD     A,R2
        MOV     R2,A
        MOV     B,#0x2
        MOV     A,?V0 + 1
        MUL     AB
        ADD     A,R2
        MOV     R1,A
        MOV     A,#devicesOnlineStatus & 0xff
        ADD     A,R0
        MOV     DPL,A
        MOV     A,#(devicesOnlineStatus >> 8) & 0xff
        ADDC    A,R1
        MOV     DPH,A
        LCALL   ?PUSH_XSTACK8_X_TWO
        CFI CFA_XSP16 add(XSP16, 123)
        MOV     R0,#?V0 + 0
        LCALL   ?PUSH_XSTACK_I_TWO
        CFI CFA_XSP16 add(XSP16, 125)
        MOV     R2,#`?<Constant "device%d %d\\n">` & 0xff
        MOV     R3,#(`?<Constant "device%d %d\\n">` >> 8) & 0xff
        LCALL   ??printf?relay
        MOV     A,#0x4
        LCALL   ?DEALLOC_XSTACK8
        CFI CFA_XSP16 add(XSP16, 121)
//  492       //HalLcdWriteString(buff, i+1);
//  493     }
        MOV     A,?V0 + 0
        ADD     A,#0x1
        MOV     ?V0 + 0,A
        MOV     A,?V0 + 1
        ADDC    A,#0x0
        MOV     ?V0 + 1,A
        LJMP    ??SampleApp_ProcessEvent_19 & 0xFFFF
//  494     
//  495     osal_start_timerEx( SampleApp_TaskID, SAMPLEAPP_COOR_CHECK_DEV_EVT,5000 );
??SampleApp_ProcessEvent_20:
        ; Setup parameters for call to function osal_start_timerEx
        MOV     R4,#-0x78
        MOV     R5,#0x13
        MOV     R2,#0x10
        MOV     R3,#0x0
        MOV     DPTR,#SampleApp_TaskID
        MOVX    A,@DPTR
        MOV     R1,A
        LCALL   ??osal_start_timerEx?relay
        MOV     A,R1
//  496     return (events ^ SAMPLEAPP_COOR_CHECK_DEV_EVT);
        MOV     A,R6
        XRL     A,#0x10
        MOV     R2,A
        MOV     A,R7
        XRL     A,#0x0
        MOV     R3,A
        LJMP    ??SampleApp_ProcessEvent_10 & 0xFFFF
//  497   }
//  498   
//  499   if ( events & SAMPLEAPP_COOR_CHECK_MQTT_EVT )//协调器执行mqtt处理事件
??SampleApp_ProcessEvent_18:
        MOV     A,R6
        ANL     A,#0x20
        JNZ     $+5
        LJMP    ??SampleApp_ProcessEvent_21 & 0xFFFF
//  500   {
//  501     uint8 pureRecMsg[50] = {0};
        MOV     DPTR,#`?<Constant {0}>_1`
        PUSH    DPL
        CFI CFA_SP SP+-1
        PUSH    DPH
        CFI CFA_SP SP+-2
        MOV     DPL,?XSP + 0
        MOV     DPH,?XSP + 1
        MOV     R4,DPL
        MOV     R5,DPH
        POP     DPH
        CFI CFA_SP SP+-1
        POP     DPL
        CFI CFA_SP SP+0
        MOV     A,#0x32
        LCALL   ?MOVE_LONG8_XDATA_XDATA
//  502     if(MqttRecMsg[0]=='\0')//假如数据字符为dev1,switch2,1
        MOV     DPTR,#MqttRecMsg
        MOVX    A,@DPTR
        JNZ     $+5
        LJMP    ??SampleApp_ProcessEvent_22 & 0xFFFF
//  503     {}
//  504     //else if(strstr(MqttRecMsg,"dev2,")!=NULL)
//  505     else{
//  506       printf("MqttRecMsg:%s\n",MqttRecMsg);
        ; Setup parameters for call to function printf
        MOV     ?V0 + 0,#MqttRecMsg & 0xff
        MOV     ?V0 + 1,#(MqttRecMsg >> 8) & 0xff
        MOV     R0,#?V0 + 0
        LCALL   ?PUSH_XSTACK_I_TWO
        CFI CFA_XSP16 add(XSP16, 123)
        MOV     R2,#`?<Constant "MqttRecMsg:%s\\n">` & 0xff
        MOV     R3,#(`?<Constant "MqttRecMsg:%s\\n">` >> 8) & 0xff
        LCALL   ??printf?relay
        MOV     A,#0x2
        LCALL   ?DEALLOC_XSTACK8
        CFI CFA_XSP16 add(XSP16, 121)
//  507       if(strstr(MqttRecMsg,"\"}")!=NULL)
        ; Setup parameters for call to function strstr
        MOV     R4,#`?<Constant "\\"}">` & 0xff
        MOV     R5,#(`?<Constant "\\"}">` >> 8) & 0xff
        MOV     R2,#MqttRecMsg & 0xff
        MOV     R3,#(MqttRecMsg >> 8) & 0xff
        LCALL   ??strstr?relay
        MOV     ?V0 + 0,R2
        MOV     ?V0 + 1,R3
        MOV     A,?V0 + 0
        ORL     A,?V0 + 1
        JZ      ??SampleApp_ProcessEvent_23
//  508       {
//  509         memcpy(pureRecMsg,strstr(MqttRecMsg,"\"msg\":\"")+7,strstr(MqttRecMsg,"\"}")-(strstr(MqttRecMsg,"\"msg\":\"")+7));
        ; Setup parameters for call to function strstr
        MOV     R4,#`?<Constant "\\"}">` & 0xff
        MOV     R5,#(`?<Constant "\\"}">` >> 8) & 0xff
        MOV     R2,#MqttRecMsg & 0xff
        MOV     R3,#(MqttRecMsg >> 8) & 0xff
        LCALL   ??strstr?relay
        MOV     ?V0 + 4,R2
        MOV     ?V0 + 5,R3
        MOV     ?V0 + 0,?V0 + 4
        MOV     ?V0 + 1,?V0 + 5
        ; Setup parameters for call to function strstr
        MOV     R4,#`?<Constant "\\"msg\\":\\"">` & 0xff
        MOV     R5,#(`?<Constant "\\"msg\\":\\"">` >> 8) & 0xff
        MOV     R2,#MqttRecMsg & 0xff
        MOV     R3,#(MqttRecMsg >> 8) & 0xff
        LCALL   ??strstr?relay
        MOV     ?V0 + 4,R2
        MOV     ?V0 + 5,R3
        MOV     R0,?V0 + 4
        MOV     R1,?V0 + 5
        ; Setup parameters for call to function memcpy
        MOV     A,?V0 + 4
        ADD     A,#0x7
        MOV     R0,A
        MOV     A,?V0 + 5
        ADDC    A,#0x0
        MOV     R1,A
        MOV     A,?V0 + 0
        CLR     C
        SUBB    A,R0
        MOV     ?V0 + 0,A
        MOV     A,?V0 + 1
        SUBB    A,R1
        MOV     ?V0 + 1,A
        MOV     R0,#?V0 + 0
        LCALL   ?PUSH_XSTACK_I_TWO
        CFI CFA_XSP16 add(XSP16, 123)
        ; Setup parameters for call to function strstr
        MOV     R4,#`?<Constant "\\"msg\\":\\"">` & 0xff
        MOV     R5,#(`?<Constant "\\"msg\\":\\"">` >> 8) & 0xff
        MOV     R2,#MqttRecMsg & 0xff
        MOV     R3,#(MqttRecMsg >> 8) & 0xff
        LCALL   ??strstr?relay
        MOV     ?V0 + 0,R2
        MOV     ?V0 + 1,R3
        MOV     A,?V0 + 0
        ADD     A,#0x7
        MOV     R4,A
        MOV     A,?V0 + 1
        ADDC    A,#0x0
        MOV     R5,A
        MOV     A,#0x2
        LCALL   ?XSTACK_DISP0_8
        MOV     R2,DPL
        MOV     R3,DPH
        LCALL   ??memcpy?relay
        MOV     A,#0x2
        LCALL   ?DEALLOC_XSTACK8
        CFI CFA_XSP16 add(XSP16, 121)
        LJMP    ??SampleApp_ProcessEvent_22 & 0xFFFF
//  510       }else if(strstr(MqttRecMsg,"\",\"flow\"")!=NULL)
??SampleApp_ProcessEvent_23:
        ; Setup parameters for call to function strstr
        MOV     R4,#`?<Constant "\\",\\"flow\\"">` & 0xff
        MOV     R5,#(`?<Constant "\\",\\"flow\\"">` >> 8) & 0xff
        MOV     R2,#MqttRecMsg & 0xff
        MOV     R3,#(MqttRecMsg >> 8) & 0xff
        LCALL   ??strstr?relay
        MOV     ?V0 + 0,R2
        MOV     ?V0 + 1,R3
        MOV     A,?V0 + 0
        ORL     A,?V0 + 1
        JZ      ??SampleApp_ProcessEvent_22
//  511       {
//  512         memcpy(pureRecMsg,strstr(MqttRecMsg,"\"msg\":\"")+7,strstr(MqttRecMsg,"\",\"flow\"")-(strstr(MqttRecMsg,"\"msg\":\"")+7));
        ; Setup parameters for call to function strstr
        MOV     R4,#`?<Constant "\\",\\"flow\\"">` & 0xff
        MOV     R5,#(`?<Constant "\\",\\"flow\\"">` >> 8) & 0xff
        MOV     R2,#MqttRecMsg & 0xff
        MOV     R3,#(MqttRecMsg >> 8) & 0xff
        LCALL   ??strstr?relay
        MOV     ?V0 + 4,R2
        MOV     ?V0 + 5,R3
        MOV     ?V0 + 0,?V0 + 4
        MOV     ?V0 + 1,?V0 + 5
        ; Setup parameters for call to function strstr
        MOV     R4,#`?<Constant "\\"msg\\":\\"">` & 0xff
        MOV     R5,#(`?<Constant "\\"msg\\":\\"">` >> 8) & 0xff
        MOV     R2,#MqttRecMsg & 0xff
        MOV     R3,#(MqttRecMsg >> 8) & 0xff
        LCALL   ??strstr?relay
        MOV     ?V0 + 4,R2
        MOV     ?V0 + 5,R3
        MOV     R0,?V0 + 4
        MOV     R1,?V0 + 5
        ; Setup parameters for call to function memcpy
        MOV     A,?V0 + 4
        ADD     A,#0x7
        MOV     R0,A
        MOV     A,?V0 + 5
        ADDC    A,#0x0
        MOV     R1,A
        MOV     A,?V0 + 0
        CLR     C
        SUBB    A,R0
        MOV     ?V0 + 0,A
        MOV     A,?V0 + 1
        SUBB    A,R1
        MOV     ?V0 + 1,A
        MOV     R0,#?V0 + 0
        LCALL   ?PUSH_XSTACK_I_TWO
        CFI CFA_XSP16 add(XSP16, 123)
        ; Setup parameters for call to function strstr
        MOV     R4,#`?<Constant "\\"msg\\":\\"">` & 0xff
        MOV     R5,#(`?<Constant "\\"msg\\":\\"">` >> 8) & 0xff
        MOV     R2,#MqttRecMsg & 0xff
        MOV     R3,#(MqttRecMsg >> 8) & 0xff
        LCALL   ??strstr?relay
        MOV     ?V0 + 0,R2
        MOV     ?V0 + 1,R3
        MOV     A,?V0 + 0
        ADD     A,#0x7
        MOV     R4,A
        MOV     A,?V0 + 1
        ADDC    A,#0x0
        MOV     R5,A
        MOV     A,#0x2
        LCALL   ?XSTACK_DISP0_8
        MOV     R2,DPL
        MOV     R3,DPH
        LCALL   ??memcpy?relay
        MOV     A,#0x2
        LCALL   ?DEALLOC_XSTACK8
        CFI CFA_XSP16 add(XSP16, 121)
//  513       }
//  514     }
//  515     if(DevicesShortAddr[0]!=-1 && strstr(pureRecMsg,"dev0,")!=NULL)
??SampleApp_ProcessEvent_22:
        MOV     DPTR,#DevicesShortAddr
        MOVX    A,@DPTR
        XRL     A,#0xff
        JNZ     ??SampleApp_ProcessEvent_24
        INC     DPTR
        MOVX    A,@DPTR
        XRL     A,#0xff
??SampleApp_ProcessEvent_24:
        JZ      ??SampleApp_ProcessEvent_25
        ; Setup parameters for call to function strstr
        MOV     R4,#`?<Constant "dev0,">` & 0xff
        MOV     R5,#(`?<Constant "dev0,">` >> 8) & 0xff
        MOV     DPL,?XSP + 0
        MOV     DPH,?XSP + 1
        MOV     R2,DPL
        MOV     R3,DPH
        LCALL   ??strstr?relay
        MOV     ?V0 + 0,R2
        MOV     ?V0 + 1,R3
        MOV     A,?V0 + 0
        ORL     A,?V0 + 1
        JZ      ??SampleApp_ProcessEvent_25
//  516     {
//  517       SampleApp_SendPointToPointMessage(DevicesShortAddr[0],0x1004,pureRecMsg,strlen(pureRecMsg)+1);
        ; Setup parameters for call to function strlen
        MOV     DPL,?XSP + 0
        MOV     DPH,?XSP + 1
        MOV     R2,DPL
        MOV     R3,DPH
        LCALL   ??strlen?relay
        MOV     ?V0 + 0,R2
        MOV     ?V0 + 1,R3
        MOV     R0,?V0 + 0
        MOV     R1,?V0 + 1
        ; Setup parameters for call to function SampleApp_SendPointToPointMessage
        MOV     A,?V0 + 0
        ADD     A,#0x1
        MOV     ?V0 + 0,A
        MOV     A,?V0 + 1
        ADDC    A,#0x0
        MOV     ?V0 + 1,A
        MOV     R0,#?V0 + 0
        LCALL   ?PUSH_XSTACK_I_TWO
        CFI CFA_XSP16 add(XSP16, 123)
        MOV     A,#0x2
        LCALL   ?XSTACK_DISP0_8
        MOV     ?V0 + 0,DPL
        MOV     ?V0 + 1,DPH
        MOV     R0,#?V0 + 0
        LCALL   ?PUSH_XSTACK_I_TWO
        CFI CFA_XSP16 add(XSP16, 125)
        MOV     R4,#0x4
        MOV     R5,#0x10
        MOV     DPTR,#DevicesShortAddr
        MOVX    A,@DPTR
        MOV     R2,A
        INC     DPTR
        MOVX    A,@DPTR
        MOV     R3,A
        LCALL   ??SampleApp_SendPointToPointMessage?relay
        MOV     A,#0x4
        LCALL   ?DEALLOC_XSTACK8
        CFI CFA_XSP16 add(XSP16, 121)
//  518       printf("dev0,");
        ; Setup parameters for call to function printf
        MOV     R2,#`?<Constant "dev0,">` & 0xff
        MOV     R3,#(`?<Constant "dev0,">` >> 8) & 0xff
        LCALL   ??printf?relay
        LJMP    ??SampleApp_ProcessEvent_26 & 0xFFFF
//  519     }else if(DevicesShortAddr[1]!=-1 && strstr(pureRecMsg,"dev1,")!=NULL)
??SampleApp_ProcessEvent_25:
        MOV     DPTR,#DevicesShortAddr + 2
        MOVX    A,@DPTR
        XRL     A,#0xff
        JNZ     ??SampleApp_ProcessEvent_27
        INC     DPTR
        MOVX    A,@DPTR
        XRL     A,#0xff
??SampleApp_ProcessEvent_27:
        JZ      ??SampleApp_ProcessEvent_28
        ; Setup parameters for call to function strstr
        MOV     R4,#`?<Constant "dev1,">` & 0xff
        MOV     R5,#(`?<Constant "dev1,">` >> 8) & 0xff
        MOV     DPL,?XSP + 0
        MOV     DPH,?XSP + 1
        MOV     R2,DPL
        MOV     R3,DPH
        LCALL   ??strstr?relay
        MOV     ?V0 + 0,R2
        MOV     ?V0 + 1,R3
        MOV     A,?V0 + 0
        ORL     A,?V0 + 1
        JZ      ??SampleApp_ProcessEvent_28
//  520     {
//  521       SampleApp_SendPointToPointMessage(DevicesShortAddr[1],0x1004,pureRecMsg,strlen(pureRecMsg)+1);
        ; Setup parameters for call to function strlen
        MOV     DPL,?XSP + 0
        MOV     DPH,?XSP + 1
        MOV     R2,DPL
        MOV     R3,DPH
        LCALL   ??strlen?relay
        MOV     ?V0 + 0,R2
        MOV     ?V0 + 1,R3
        MOV     R0,?V0 + 0
        MOV     R1,?V0 + 1
        ; Setup parameters for call to function SampleApp_SendPointToPointMessage
        MOV     A,?V0 + 0
        ADD     A,#0x1
        MOV     ?V0 + 0,A
        MOV     A,?V0 + 1
        ADDC    A,#0x0
        MOV     ?V0 + 1,A
        MOV     R0,#?V0 + 0
        LCALL   ?PUSH_XSTACK_I_TWO
        CFI CFA_XSP16 add(XSP16, 123)
        MOV     A,#0x2
        LCALL   ?XSTACK_DISP0_8
        MOV     ?V0 + 0,DPL
        MOV     ?V0 + 1,DPH
        MOV     R0,#?V0 + 0
        LCALL   ?PUSH_XSTACK_I_TWO
        CFI CFA_XSP16 add(XSP16, 125)
        MOV     R4,#0x4
        MOV     R5,#0x10
        MOV     DPTR,#DevicesShortAddr + 2
        MOVX    A,@DPTR
        MOV     R2,A
        INC     DPTR
        MOVX    A,@DPTR
        MOV     R3,A
        LCALL   ??SampleApp_SendPointToPointMessage?relay
        MOV     A,#0x4
        LCALL   ?DEALLOC_XSTACK8
        CFI CFA_XSP16 add(XSP16, 121)
//  522       printf("dev1,");
        ; Setup parameters for call to function printf
        MOV     R2,#`?<Constant "dev1,">` & 0xff
        MOV     R3,#(`?<Constant "dev1,">` >> 8) & 0xff
        LCALL   ??printf?relay
        LJMP    ??SampleApp_ProcessEvent_26 & 0xFFFF
//  523     }else if(DevicesShortAddr[2]!=-1 && strstr(pureRecMsg,"dev2,")!=NULL)
??SampleApp_ProcessEvent_28:
        MOV     DPTR,#DevicesShortAddr + 4
        MOVX    A,@DPTR
        XRL     A,#0xff
        JNZ     ??SampleApp_ProcessEvent_29
        INC     DPTR
        MOVX    A,@DPTR
        XRL     A,#0xff
??SampleApp_ProcessEvent_29:
        JZ      ??SampleApp_ProcessEvent_30
        ; Setup parameters for call to function strstr
        MOV     R4,#`?<Constant "dev2,">` & 0xff
        MOV     R5,#(`?<Constant "dev2,">` >> 8) & 0xff
        MOV     DPL,?XSP + 0
        MOV     DPH,?XSP + 1
        MOV     R2,DPL
        MOV     R3,DPH
        LCALL   ??strstr?relay
        MOV     ?V0 + 0,R2
        MOV     ?V0 + 1,R3
        MOV     A,?V0 + 0
        ORL     A,?V0 + 1
        JZ      ??SampleApp_ProcessEvent_30
//  524     {
//  525       SampleApp_SendPointToPointMessage(DevicesShortAddr[2],0x1004,pureRecMsg,strlen(pureRecMsg)+1);
        ; Setup parameters for call to function strlen
        MOV     DPL,?XSP + 0
        MOV     DPH,?XSP + 1
        MOV     R2,DPL
        MOV     R3,DPH
        LCALL   ??strlen?relay
        MOV     ?V0 + 0,R2
        MOV     ?V0 + 1,R3
        MOV     R0,?V0 + 0
        MOV     R1,?V0 + 1
        ; Setup parameters for call to function SampleApp_SendPointToPointMessage
        MOV     A,?V0 + 0
        ADD     A,#0x1
        MOV     ?V0 + 0,A
        MOV     A,?V0 + 1
        ADDC    A,#0x0
        MOV     ?V0 + 1,A
        MOV     R0,#?V0 + 0
        LCALL   ?PUSH_XSTACK_I_TWO
        CFI CFA_XSP16 add(XSP16, 123)
        MOV     A,#0x2
        LCALL   ?XSTACK_DISP0_8
        MOV     ?V0 + 0,DPL
        MOV     ?V0 + 1,DPH
        MOV     R0,#?V0 + 0
        LCALL   ?PUSH_XSTACK_I_TWO
        CFI CFA_XSP16 add(XSP16, 125)
        MOV     R4,#0x4
        MOV     R5,#0x10
        MOV     DPTR,#DevicesShortAddr + 4
        MOVX    A,@DPTR
        MOV     R2,A
        INC     DPTR
        MOVX    A,@DPTR
        MOV     R3,A
        LCALL   ??SampleApp_SendPointToPointMessage?relay
        MOV     A,#0x4
        LCALL   ?DEALLOC_XSTACK8
        CFI CFA_XSP16 add(XSP16, 121)
//  526       printf("dev2,");
        ; Setup parameters for call to function printf
        MOV     R2,#`?<Constant "dev2,">` & 0xff
        MOV     R3,#(`?<Constant "dev2,">` >> 8) & 0xff
        LCALL   ??printf?relay
        SJMP    ??SampleApp_ProcessEvent_26
//  527     }else if(DevicesShortAddr[3]!=-1 && strstr(pureRecMsg,"dev3,")!=NULL)
??SampleApp_ProcessEvent_30:
        MOV     DPTR,#DevicesShortAddr + 6
        MOVX    A,@DPTR
        XRL     A,#0xff
        JNZ     ??SampleApp_ProcessEvent_31
        INC     DPTR
        MOVX    A,@DPTR
        XRL     A,#0xff
??SampleApp_ProcessEvent_31:
        JZ      ??SampleApp_ProcessEvent_26
        ; Setup parameters for call to function strstr
        MOV     R4,#`?<Constant "dev3,">` & 0xff
        MOV     R5,#(`?<Constant "dev3,">` >> 8) & 0xff
        MOV     DPL,?XSP + 0
        MOV     DPH,?XSP + 1
        MOV     R2,DPL
        MOV     R3,DPH
        LCALL   ??strstr?relay
        MOV     ?V0 + 0,R2
        MOV     ?V0 + 1,R3
        MOV     A,?V0 + 0
        ORL     A,?V0 + 1
        JZ      ??SampleApp_ProcessEvent_26
//  528     {
//  529       SampleApp_SendPointToPointMessage(DevicesShortAddr[3],0x1004,pureRecMsg,strlen(pureRecMsg)+1);
        ; Setup parameters for call to function strlen
        MOV     DPL,?XSP + 0
        MOV     DPH,?XSP + 1
        MOV     R2,DPL
        MOV     R3,DPH
        LCALL   ??strlen?relay
        MOV     ?V0 + 0,R2
        MOV     ?V0 + 1,R3
        MOV     R0,?V0 + 0
        MOV     R1,?V0 + 1
        ; Setup parameters for call to function SampleApp_SendPointToPointMessage
        MOV     A,?V0 + 0
        ADD     A,#0x1
        MOV     ?V0 + 0,A
        MOV     A,?V0 + 1
        ADDC    A,#0x0
        MOV     ?V0 + 1,A
        MOV     R0,#?V0 + 0
        LCALL   ?PUSH_XSTACK_I_TWO
        CFI CFA_XSP16 add(XSP16, 123)
        MOV     A,#0x2
        LCALL   ?XSTACK_DISP0_8
        MOV     ?V0 + 0,DPL
        MOV     ?V0 + 1,DPH
        MOV     R0,#?V0 + 0
        LCALL   ?PUSH_XSTACK_I_TWO
        CFI CFA_XSP16 add(XSP16, 125)
        MOV     R4,#0x4
        MOV     R5,#0x10
        MOV     DPTR,#DevicesShortAddr + 6
        MOVX    A,@DPTR
        MOV     R2,A
        INC     DPTR
        MOVX    A,@DPTR
        MOV     R3,A
        LCALL   ??SampleApp_SendPointToPointMessage?relay
        MOV     A,#0x4
        LCALL   ?DEALLOC_XSTACK8
        CFI CFA_XSP16 add(XSP16, 121)
//  530       printf("dev3,");
        ; Setup parameters for call to function printf
        MOV     R2,#`?<Constant "dev3,">` & 0xff
        MOV     R3,#(`?<Constant "dev3,">` >> 8) & 0xff
        LCALL   ??printf?relay
//  531     }
//  532     osal_memset(MqttRecMsg, 0, 200);
??SampleApp_ProcessEvent_26:
        ; Setup parameters for call to function osal_memset
        MOV     R4,#-0x38
        MOV     R5,#0x0
        MOV     R1,#0x0
        MOV     R2,#MqttRecMsg & 0xff
        MOV     R3,#(MqttRecMsg >> 8) & 0xff
        LCALL   ??osal_memset?relay
//  533     
//  534     return (events ^ SAMPLEAPP_COOR_CHECK_MQTT_EVT);
        MOV     A,R6
        XRL     A,#0x20
        MOV     R2,A
        MOV     A,R7
        XRL     A,#0x0
        MOV     R3,A
        SJMP    ??SampleApp_ProcessEvent_10
//  535   }  
//  536 #else
//  537   
//  538   //定时器时间到
//  539   if ( events & SAMPLEAPP_SEND_PERIODIC_MSG_EVT )
//  540   {
//  541     
//  542     // DHT11采集
//  543     //SampleApp_Send_P2P_Message();
//  544     
//  545     // Setup to send message again in normal period (+ a little jitter)
//  546     osal_start_timerEx( SampleApp_TaskID, SAMPLEAPP_SEND_PERIODIC_MSG_EVT,
//  547                        (SAMPLEAPP_SEND_PERIODIC_MSG_TIMEOUT + (osal_rand() & 0x00FF)) );
//  548     
//  549     // return unprocessed events
//  550     return (events ^ SAMPLEAPP_SEND_PERIODIC_MSG_EVT);
//  551   }
//  552   if ( events & SAMPLEAPP_ENDDEV_HEART_BEAT_EVT )//终端向协调器发送心跳包事件
//  553   {
//  554     
//  555     SampleApp_SendPointToPointMessage(0x0000,0x1001,'\0',1);//发送心跳数据包
//  556     osal_start_timerEx( SampleApp_TaskID, SAMPLEAPP_ENDDEV_HEART_BEAT_EVT,2000 );
//  557     
//  558     // return unprocessed events
//  559     return (events ^ SAMPLEAPP_ENDDEV_HEART_BEAT_EVT);
//  560   }
//  561   
//  562 #endif
//  563   
//  564   return ( 0 );  // Discard unknown events.
??SampleApp_ProcessEvent_21:
        MOV     R2,#0x0
        MOV     R3,#0x0
??SampleApp_ProcessEvent_10:
        MOV     A,#0x6b
        LCALL   ?DEALLOC_XSTACK8
        CFI CFA_XSP16 add(XSP16, 14)
        MOV     R7,#0x6
        LJMP    ?BANKED_LEAVE_XDATA
        CFI EndBlock cfiBlock2
        REQUIRE _A_P1
//  565 }
//  566 
//  567 /*********************************************************************
//  568 * @fn      SerialApp_ProcessMSGCmd
//  569 *
//  570 * @brief   Data message processor callback. This function processes
//  571 *          any incoming data - probably from other devices. Based
//  572 *          on the cluster ID, perform the intended action.
//  573 *
//  574 * @param   pkt - pointer to the incoming message packet
//  575 *
//  576 * @return  TRUE if the 'pkt' parameter is being used and will be freed later,
//  577 *          FALSE otherwise.
//  578 */

        RSEG BANKED_CODE:CODE:NOROOT(0)
//  579 void SampleApp_ProcessMSGCmd( afIncomingMSGPacket_t *pkt )
SampleApp_ProcessMSGCmd:
        CFI Block cfiBlock3 Using cfiCommon0
        CFI Function SampleApp_ProcessMSGCmd
        CODE
//  580 {
        FUNCALL SampleApp_ProcessMSGCmd, memcpy
        LOCFRAME ISTACK, 0, STACK
        LOCFRAME PSTACK, 0, STACK
        LOCFRAME XSTACK, 218, STACK
        LOCFRAME IOVERLAY, 0, STATIC
        LOCFRAME DOVERLAY, 0, STATIC
        ARGFRAME ISTACK, 0, STACK
        ARGFRAME PSTACK, 0, STACK
        ARGFRAME XSTACK, 218, STACK
        ARGFRAME IOVERLAY, 0, STATIC
        ARGFRAME DOVERLAY, 0, STATIC
        FUNCALL SampleApp_ProcessMSGCmd, sscanf
        LOCFRAME ISTACK, 0, STACK
        LOCFRAME PSTACK, 0, STACK
        LOCFRAME XSTACK, 218, STACK
        LOCFRAME IOVERLAY, 0, STATIC
        LOCFRAME DOVERLAY, 0, STATIC
        ARGFRAME ISTACK, 0, STACK
        ARGFRAME PSTACK, 0, STACK
        ARGFRAME XSTACK, 218, STACK
        ARGFRAME IOVERLAY, 0, STATIC
        ARGFRAME DOVERLAY, 0, STATIC
        FUNCALL SampleApp_ProcessMSGCmd, memcpy
        LOCFRAME ISTACK, 0, STACK
        LOCFRAME PSTACK, 0, STACK
        LOCFRAME XSTACK, 218, STACK
        LOCFRAME IOVERLAY, 0, STATIC
        LOCFRAME DOVERLAY, 0, STATIC
        ARGFRAME ISTACK, 0, STACK
        ARGFRAME PSTACK, 0, STACK
        ARGFRAME XSTACK, 218, STACK
        ARGFRAME IOVERLAY, 0, STATIC
        ARGFRAME DOVERLAY, 0, STATIC
        FUNCALL SampleApp_ProcessMSGCmd, sscanf
        LOCFRAME ISTACK, 0, STACK
        LOCFRAME PSTACK, 0, STACK
        LOCFRAME XSTACK, 218, STACK
        LOCFRAME IOVERLAY, 0, STATIC
        LOCFRAME DOVERLAY, 0, STATIC
        ARGFRAME ISTACK, 0, STACK
        ARGFRAME PSTACK, 0, STACK
        ARGFRAME XSTACK, 218, STACK
        ARGFRAME IOVERLAY, 0, STATIC
        ARGFRAME DOVERLAY, 0, STATIC
        FUNCALL SampleApp_ProcessMSGCmd, memcpy
        LOCFRAME ISTACK, 0, STACK
        LOCFRAME PSTACK, 0, STACK
        LOCFRAME XSTACK, 218, STACK
        LOCFRAME IOVERLAY, 0, STATIC
        LOCFRAME DOVERLAY, 0, STATIC
        ARGFRAME ISTACK, 0, STACK
        ARGFRAME PSTACK, 0, STACK
        ARGFRAME XSTACK, 218, STACK
        ARGFRAME IOVERLAY, 0, STATIC
        ARGFRAME DOVERLAY, 0, STATIC
        FUNCALL SampleApp_ProcessMSGCmd, HalLcdWriteString
        LOCFRAME ISTACK, 0, STACK
        LOCFRAME PSTACK, 0, STACK
        LOCFRAME XSTACK, 216, STACK
        LOCFRAME IOVERLAY, 0, STATIC
        LOCFRAME DOVERLAY, 0, STATIC
        ARGFRAME ISTACK, 0, STACK
        ARGFRAME PSTACK, 0, STACK
        ARGFRAME XSTACK, 216, STACK
        ARGFRAME IOVERLAY, 0, STATIC
        ARGFRAME DOVERLAY, 0, STATIC
        FUNCALL SampleApp_ProcessMSGCmd, printf
        LOCFRAME ISTACK, 0, STACK
        LOCFRAME PSTACK, 0, STACK
        LOCFRAME XSTACK, 218, STACK
        LOCFRAME IOVERLAY, 0, STATIC
        LOCFRAME DOVERLAY, 0, STATIC
        ARGFRAME ISTACK, 0, STACK
        ARGFRAME PSTACK, 0, STACK
        ARGFRAME XSTACK, 218, STACK
        ARGFRAME IOVERLAY, 0, STATIC
        ARGFRAME DOVERLAY, 0, STATIC
        FUNCALL SampleApp_ProcessMSGCmd, strncmp
        LOCFRAME ISTACK, 0, STACK
        LOCFRAME PSTACK, 0, STACK
        LOCFRAME XSTACK, 218, STACK
        LOCFRAME IOVERLAY, 0, STATIC
        LOCFRAME DOVERLAY, 0, STATIC
        ARGFRAME ISTACK, 0, STACK
        ARGFRAME PSTACK, 0, STACK
        ARGFRAME XSTACK, 218, STACK
        ARGFRAME IOVERLAY, 0, STATIC
        ARGFRAME DOVERLAY, 0, STATIC
        FUNCALL SampleApp_ProcessMSGCmd, sprintf
        LOCFRAME ISTACK, 0, STACK
        LOCFRAME PSTACK, 0, STACK
        LOCFRAME XSTACK, 218, STACK
        LOCFRAME IOVERLAY, 0, STATIC
        LOCFRAME DOVERLAY, 0, STATIC
        ARGFRAME ISTACK, 0, STACK
        ARGFRAME PSTACK, 0, STACK
        ARGFRAME XSTACK, 218, STACK
        ARGFRAME IOVERLAY, 0, STATIC
        ARGFRAME DOVERLAY, 0, STATIC
        FUNCALL SampleApp_ProcessMSGCmd, sprintf
        LOCFRAME ISTACK, 0, STACK
        LOCFRAME PSTACK, 0, STACK
        LOCFRAME XSTACK, 218, STACK
        LOCFRAME IOVERLAY, 0, STATIC
        LOCFRAME DOVERLAY, 0, STATIC
        ARGFRAME ISTACK, 0, STACK
        ARGFRAME PSTACK, 0, STACK
        ARGFRAME XSTACK, 218, STACK
        ARGFRAME IOVERLAY, 0, STATIC
        ARGFRAME DOVERLAY, 0, STATIC
        FUNCALL SampleApp_ProcessMSGCmd, OneNet_publish_topic
        LOCFRAME ISTACK, 0, STACK
        LOCFRAME PSTACK, 0, STACK
        LOCFRAME XSTACK, 216, STACK
        LOCFRAME IOVERLAY, 0, STATIC
        LOCFRAME DOVERLAY, 0, STATIC
        ARGFRAME ISTACK, 0, STACK
        ARGFRAME PSTACK, 0, STACK
        ARGFRAME XSTACK, 216, STACK
        ARGFRAME IOVERLAY, 0, STATIC
        ARGFRAME DOVERLAY, 0, STATIC
        FUNCALL SampleApp_ProcessMSGCmd, strstr
        LOCFRAME ISTACK, 0, STACK
        LOCFRAME PSTACK, 0, STACK
        LOCFRAME XSTACK, 216, STACK
        LOCFRAME IOVERLAY, 0, STATIC
        LOCFRAME DOVERLAY, 0, STATIC
        ARGFRAME ISTACK, 0, STACK
        ARGFRAME PSTACK, 0, STACK
        ARGFRAME XSTACK, 216, STACK
        ARGFRAME IOVERLAY, 0, STATIC
        ARGFRAME DOVERLAY, 0, STATIC
        FUNCALL SampleApp_ProcessMSGCmd, strlen
        LOCFRAME ISTACK, 0, STACK
        LOCFRAME PSTACK, 0, STACK
        LOCFRAME XSTACK, 216, STACK
        LOCFRAME IOVERLAY, 0, STATIC
        LOCFRAME DOVERLAY, 0, STATIC
        ARGFRAME ISTACK, 0, STACK
        ARGFRAME PSTACK, 0, STACK
        ARGFRAME XSTACK, 216, STACK
        ARGFRAME IOVERLAY, 0, STATIC
        ARGFRAME DOVERLAY, 0, STATIC
        FUNCALL SampleApp_ProcessMSGCmd, SampleApp_SendPointToPointMessage
        LOCFRAME ISTACK, 0, STACK
        LOCFRAME PSTACK, 0, STACK
        LOCFRAME XSTACK, 220, STACK
        LOCFRAME IOVERLAY, 0, STATIC
        LOCFRAME DOVERLAY, 0, STATIC
        ARGFRAME ISTACK, 0, STACK
        ARGFRAME PSTACK, 0, STACK
        ARGFRAME XSTACK, 220, STACK
        ARGFRAME IOVERLAY, 0, STATIC
        ARGFRAME DOVERLAY, 0, STATIC
        FUNCALL SampleApp_ProcessMSGCmd, strstr
        LOCFRAME ISTACK, 0, STACK
        LOCFRAME PSTACK, 0, STACK
        LOCFRAME XSTACK, 216, STACK
        LOCFRAME IOVERLAY, 0, STATIC
        LOCFRAME DOVERLAY, 0, STATIC
        ARGFRAME ISTACK, 0, STACK
        ARGFRAME PSTACK, 0, STACK
        ARGFRAME XSTACK, 216, STACK
        ARGFRAME IOVERLAY, 0, STATIC
        ARGFRAME DOVERLAY, 0, STATIC
        FUNCALL SampleApp_ProcessMSGCmd, strlen
        LOCFRAME ISTACK, 0, STACK
        LOCFRAME PSTACK, 0, STACK
        LOCFRAME XSTACK, 216, STACK
        LOCFRAME IOVERLAY, 0, STATIC
        LOCFRAME DOVERLAY, 0, STATIC
        ARGFRAME ISTACK, 0, STACK
        ARGFRAME PSTACK, 0, STACK
        ARGFRAME XSTACK, 216, STACK
        ARGFRAME IOVERLAY, 0, STATIC
        ARGFRAME DOVERLAY, 0, STATIC
        FUNCALL SampleApp_ProcessMSGCmd, SampleApp_SendPointToPointMessage
        LOCFRAME ISTACK, 0, STACK
        LOCFRAME PSTACK, 0, STACK
        LOCFRAME XSTACK, 220, STACK
        LOCFRAME IOVERLAY, 0, STATIC
        LOCFRAME DOVERLAY, 0, STATIC
        ARGFRAME ISTACK, 0, STACK
        ARGFRAME PSTACK, 0, STACK
        ARGFRAME XSTACK, 220, STACK
        ARGFRAME IOVERLAY, 0, STATIC
        ARGFRAME DOVERLAY, 0, STATIC
        FUNCALL SampleApp_ProcessMSGCmd, strstr
        LOCFRAME ISTACK, 0, STACK
        LOCFRAME PSTACK, 0, STACK
        LOCFRAME XSTACK, 216, STACK
        LOCFRAME IOVERLAY, 0, STATIC
        LOCFRAME DOVERLAY, 0, STATIC
        ARGFRAME ISTACK, 0, STACK
        ARGFRAME PSTACK, 0, STACK
        ARGFRAME XSTACK, 216, STACK
        ARGFRAME IOVERLAY, 0, STATIC
        ARGFRAME DOVERLAY, 0, STATIC
        FUNCALL SampleApp_ProcessMSGCmd, strlen
        LOCFRAME ISTACK, 0, STACK
        LOCFRAME PSTACK, 0, STACK
        LOCFRAME XSTACK, 216, STACK
        LOCFRAME IOVERLAY, 0, STATIC
        LOCFRAME DOVERLAY, 0, STATIC
        ARGFRAME ISTACK, 0, STACK
        ARGFRAME PSTACK, 0, STACK
        ARGFRAME XSTACK, 216, STACK
        ARGFRAME IOVERLAY, 0, STATIC
        ARGFRAME DOVERLAY, 0, STATIC
        FUNCALL SampleApp_ProcessMSGCmd, SampleApp_SendPointToPointMessage
        LOCFRAME ISTACK, 0, STACK
        LOCFRAME PSTACK, 0, STACK
        LOCFRAME XSTACK, 220, STACK
        LOCFRAME IOVERLAY, 0, STATIC
        LOCFRAME DOVERLAY, 0, STATIC
        ARGFRAME ISTACK, 0, STACK
        ARGFRAME PSTACK, 0, STACK
        ARGFRAME XSTACK, 220, STACK
        ARGFRAME IOVERLAY, 0, STATIC
        ARGFRAME DOVERLAY, 0, STATIC
        FUNCALL SampleApp_ProcessMSGCmd, strstr
        LOCFRAME ISTACK, 0, STACK
        LOCFRAME PSTACK, 0, STACK
        LOCFRAME XSTACK, 216, STACK
        LOCFRAME IOVERLAY, 0, STATIC
        LOCFRAME DOVERLAY, 0, STATIC
        ARGFRAME ISTACK, 0, STACK
        ARGFRAME PSTACK, 0, STACK
        ARGFRAME XSTACK, 216, STACK
        ARGFRAME IOVERLAY, 0, STATIC
        ARGFRAME DOVERLAY, 0, STATIC
        FUNCALL SampleApp_ProcessMSGCmd, strlen
        LOCFRAME ISTACK, 0, STACK
        LOCFRAME PSTACK, 0, STACK
        LOCFRAME XSTACK, 216, STACK
        LOCFRAME IOVERLAY, 0, STATIC
        LOCFRAME DOVERLAY, 0, STATIC
        ARGFRAME ISTACK, 0, STACK
        ARGFRAME PSTACK, 0, STACK
        ARGFRAME XSTACK, 216, STACK
        ARGFRAME IOVERLAY, 0, STATIC
        ARGFRAME DOVERLAY, 0, STATIC
        FUNCALL SampleApp_ProcessMSGCmd, SampleApp_SendPointToPointMessage
        LOCFRAME ISTACK, 0, STACK
        LOCFRAME PSTACK, 0, STACK
        LOCFRAME XSTACK, 220, STACK
        LOCFRAME IOVERLAY, 0, STATIC
        LOCFRAME DOVERLAY, 0, STATIC
        ARGFRAME ISTACK, 0, STACK
        ARGFRAME PSTACK, 0, STACK
        ARGFRAME XSTACK, 220, STACK
        ARGFRAME IOVERLAY, 0, STATIC
        ARGFRAME DOVERLAY, 0, STATIC
        FUNCALL SampleApp_ProcessMSGCmd, strstr
        LOCFRAME ISTACK, 0, STACK
        LOCFRAME PSTACK, 0, STACK
        LOCFRAME XSTACK, 216, STACK
        LOCFRAME IOVERLAY, 0, STATIC
        LOCFRAME DOVERLAY, 0, STATIC
        ARGFRAME ISTACK, 0, STACK
        ARGFRAME PSTACK, 0, STACK
        ARGFRAME XSTACK, 216, STACK
        ARGFRAME IOVERLAY, 0, STATIC
        ARGFRAME DOVERLAY, 0, STATIC
        FUNCALL SampleApp_ProcessMSGCmd, strlen
        LOCFRAME ISTACK, 0, STACK
        LOCFRAME PSTACK, 0, STACK
        LOCFRAME XSTACK, 216, STACK
        LOCFRAME IOVERLAY, 0, STATIC
        LOCFRAME DOVERLAY, 0, STATIC
        ARGFRAME ISTACK, 0, STACK
        ARGFRAME PSTACK, 0, STACK
        ARGFRAME XSTACK, 216, STACK
        ARGFRAME IOVERLAY, 0, STATIC
        ARGFRAME DOVERLAY, 0, STATIC
        FUNCALL SampleApp_ProcessMSGCmd, sprintf
        LOCFRAME ISTACK, 0, STACK
        LOCFRAME PSTACK, 0, STACK
        LOCFRAME XSTACK, 220, STACK
        LOCFRAME IOVERLAY, 0, STATIC
        LOCFRAME DOVERLAY, 0, STATIC
        ARGFRAME ISTACK, 0, STACK
        ARGFRAME PSTACK, 0, STACK
        ARGFRAME XSTACK, 220, STACK
        ARGFRAME IOVERLAY, 0, STATIC
        ARGFRAME DOVERLAY, 0, STATIC
        FUNCALL SampleApp_ProcessMSGCmd, strlen
        LOCFRAME ISTACK, 0, STACK
        LOCFRAME PSTACK, 0, STACK
        LOCFRAME XSTACK, 216, STACK
        LOCFRAME IOVERLAY, 0, STATIC
        LOCFRAME DOVERLAY, 0, STATIC
        ARGFRAME ISTACK, 0, STACK
        ARGFRAME PSTACK, 0, STACK
        ARGFRAME XSTACK, 216, STACK
        ARGFRAME IOVERLAY, 0, STATIC
        ARGFRAME DOVERLAY, 0, STATIC
        FUNCALL SampleApp_ProcessMSGCmd, SampleApp_SendPointToPointMessage
        LOCFRAME ISTACK, 0, STACK
        LOCFRAME PSTACK, 0, STACK
        LOCFRAME XSTACK, 220, STACK
        LOCFRAME IOVERLAY, 0, STATIC
        LOCFRAME DOVERLAY, 0, STATIC
        ARGFRAME ISTACK, 0, STACK
        ARGFRAME PSTACK, 0, STACK
        ARGFRAME XSTACK, 220, STACK
        ARGFRAME IOVERLAY, 0, STATIC
        ARGFRAME DOVERLAY, 0, STATIC
        FUNCALL SampleApp_ProcessMSGCmd, strstr
        LOCFRAME ISTACK, 0, STACK
        LOCFRAME PSTACK, 0, STACK
        LOCFRAME XSTACK, 216, STACK
        LOCFRAME IOVERLAY, 0, STATIC
        LOCFRAME DOVERLAY, 0, STATIC
        ARGFRAME ISTACK, 0, STACK
        ARGFRAME PSTACK, 0, STACK
        ARGFRAME XSTACK, 216, STACK
        ARGFRAME IOVERLAY, 0, STATIC
        ARGFRAME DOVERLAY, 0, STATIC
        FUNCALL SampleApp_ProcessMSGCmd, strlen
        LOCFRAME ISTACK, 0, STACK
        LOCFRAME PSTACK, 0, STACK
        LOCFRAME XSTACK, 216, STACK
        LOCFRAME IOVERLAY, 0, STATIC
        LOCFRAME DOVERLAY, 0, STATIC
        ARGFRAME ISTACK, 0, STACK
        ARGFRAME PSTACK, 0, STACK
        ARGFRAME XSTACK, 216, STACK
        ARGFRAME IOVERLAY, 0, STATIC
        ARGFRAME DOVERLAY, 0, STATIC
        FUNCALL SampleApp_ProcessMSGCmd, sprintf
        LOCFRAME ISTACK, 0, STACK
        LOCFRAME PSTACK, 0, STACK
        LOCFRAME XSTACK, 220, STACK
        LOCFRAME IOVERLAY, 0, STATIC
        LOCFRAME DOVERLAY, 0, STATIC
        ARGFRAME ISTACK, 0, STACK
        ARGFRAME PSTACK, 0, STACK
        ARGFRAME XSTACK, 220, STACK
        ARGFRAME IOVERLAY, 0, STATIC
        ARGFRAME DOVERLAY, 0, STATIC
        FUNCALL SampleApp_ProcessMSGCmd, strlen
        LOCFRAME ISTACK, 0, STACK
        LOCFRAME PSTACK, 0, STACK
        LOCFRAME XSTACK, 216, STACK
        LOCFRAME IOVERLAY, 0, STATIC
        LOCFRAME DOVERLAY, 0, STATIC
        ARGFRAME ISTACK, 0, STACK
        ARGFRAME PSTACK, 0, STACK
        ARGFRAME XSTACK, 216, STACK
        ARGFRAME IOVERLAY, 0, STATIC
        ARGFRAME DOVERLAY, 0, STATIC
        FUNCALL SampleApp_ProcessMSGCmd, SampleApp_SendPointToPointMessage
        LOCFRAME ISTACK, 0, STACK
        LOCFRAME PSTACK, 0, STACK
        LOCFRAME XSTACK, 220, STACK
        LOCFRAME IOVERLAY, 0, STATIC
        LOCFRAME DOVERLAY, 0, STATIC
        ARGFRAME ISTACK, 0, STACK
        ARGFRAME PSTACK, 0, STACK
        ARGFRAME XSTACK, 220, STACK
        ARGFRAME IOVERLAY, 0, STATIC
        ARGFRAME DOVERLAY, 0, STATIC
        FUNCALL SampleApp_ProcessMSGCmd, Response2mqtt
        LOCFRAME ISTACK, 0, STACK
        LOCFRAME PSTACK, 0, STACK
        LOCFRAME XSTACK, 216, STACK
        LOCFRAME IOVERLAY, 0, STATIC
        LOCFRAME DOVERLAY, 0, STATIC
        ARGFRAME ISTACK, 0, STACK
        ARGFRAME PSTACK, 0, STACK
        ARGFRAME XSTACK, 216, STACK
        ARGFRAME IOVERLAY, 0, STATIC
        ARGFRAME DOVERLAY, 0, STATIC
        FUNCALL SampleApp_ProcessMSGCmd, sprintf
        LOCFRAME ISTACK, 0, STACK
        LOCFRAME PSTACK, 0, STACK
        LOCFRAME XSTACK, 218, STACK
        LOCFRAME IOVERLAY, 0, STATIC
        LOCFRAME DOVERLAY, 0, STATIC
        ARGFRAME ISTACK, 0, STACK
        ARGFRAME PSTACK, 0, STACK
        ARGFRAME XSTACK, 218, STACK
        ARGFRAME IOVERLAY, 0, STATIC
        ARGFRAME DOVERLAY, 0, STATIC
        MOV     A,#-0xc
        LCALL   ?BANKED_ENTER_XDATA
        CFI DPH0 load(1, XDATA, add(CFA_XSP16, literal(-1)))
        CFI DPL0 load(1, XDATA, add(CFA_XSP16, literal(-2)))
        CFI ?BRET_EXT load(1, XDATA, add(CFA_XSP16, literal(-3)))
        CFI ?RET_HIGH load(1, XDATA, add(CFA_XSP16, literal(-4)))
        CFI ?RET_LOW load(1, XDATA, add(CFA_XSP16, literal(-5)))
        CFI R7 load(1, XDATA, add(CFA_XSP16, literal(-6)))
        CFI V3 load(1, XDATA, add(CFA_XSP16, literal(-7)))
        CFI V2 load(1, XDATA, add(CFA_XSP16, literal(-8)))
        CFI V1 load(1, XDATA, add(CFA_XSP16, literal(-9)))
        CFI V0 load(1, XDATA, add(CFA_XSP16, literal(-10)))
        CFI VB load(1, XDATA, add(CFA_XSP16, literal(-11)))
        CFI R6 load(1, XDATA, add(CFA_XSP16, literal(-12)))
        CFI CFA_SP SP+0
        CFI CFA_XSP16 add(XSP16, 12)
        ; Saved register size: 12
        ; Auto size: 204
        MOV     A,#0x34
        LCALL   ?ALLOC_XSTACK8
        CFI CFA_XSP16 add(XSP16, 216)
        MOV     A,R2
        MOV     R6,A
        MOV     A,R3
        MOV     R7,A
//  581   //uint8 buff[200]={0};
//  582   
//  583   //uint8 dataID[5]={0};
//  584   int dataID_int = 0;
        MOV     A,#0x2
        LCALL   ?XSTACK_DISP0_8
        MOV     A,#0x0
        MOVX    @DPTR,A
        INC     DPTR
        MOV     A,#0x0
        MOVX    @DPTR,A
//  585   int dataLens = 0;
        MOV     DPL,?XSP + 0
        MOV     DPH,?XSP + 1
        MOV     A,#0x0
        MOVX    @DPTR,A
        INC     DPTR
        MOV     A,#0x0
        MOVX    @DPTR,A
//  586   uint8 data[200]={0};
        MOV     DPTR,#`?<Constant {0}>_2`
        PUSH    DPL
        CFI CFA_SP SP+-1
        PUSH    DPH
        CFI CFA_SP SP+-2
        MOV     A,#0x4
        LCALL   ?XSTACK_DISP0_8
        MOV     R4,DPL
        MOV     R5,DPH
        POP     DPH
        CFI CFA_SP SP+-1
        POP     DPL
        CFI CFA_SP SP+0
        MOV     A,#-0x38
        LCALL   ?MOVE_LONG8_XDATA_XDATA
//  587   //uint8 tmpData[200]={0};
//  588   switch ( pkt->clusterId )
        MOV     DPL,R6
        MOV     DPH,R7
        INC     DPTR
        INC     DPTR
        INC     DPTR
        INC     DPTR
        MOVX    A,@DPTR
        MOV     ?V0 + 0,A
        INC     DPTR
        MOVX    A,@DPTR
        MOV     ?V0 + 1,A
        MOV     R0,#?V0 + 0
        LCALL   ?US_SWITCH_DENSE
`?<Jumptable for SampleApp_ProcessMSGCmd>_0`:
        DATA
        DATA16
        DATA
        DATA16
        DW        1
        DATA
        DATA8
        DATA
        DATA8
        DB        1
        DATA
        DATA16
        DATA
        DATA16
        DW        ??SampleApp_ProcessMSGCmd_0
        DATA
        DATA16
        DATA
        DATA16
        DW        ??SampleApp_ProcessMSGCmd_1
        DATA
        DATA16
        DATA
        DATA16
        DW        ??SampleApp_ProcessMSGCmd_0
        CODE
//  589   {
//  590     // 接收终端上传的温度数据
//  591   case SAMPLEAPP_P2P_CLUSTERID:
//  592     
//  593     {
//  594       
//  595       memcpy(data,pkt->cmd.Data,4);
??SampleApp_ProcessMSGCmd_1:
        ; Setup parameters for call to function memcpy
        MOV     ?V0 + 0,#0x4
        MOV     ?V0 + 1,#0x0
        MOV     R0,#?V0 + 0
        LCALL   ?PUSH_XSTACK_I_TWO
        CFI CFA_XSP16 add(XSP16, 218)
        MOV     A,R6
        ADD     A,#0x22
        MOV     DPL,A
        MOV     A,R7
        ADDC    A,#0x0
        MOV     DPH,A
        MOVX    A,@DPTR
        MOV     R4,A
        INC     DPTR
        MOVX    A,@DPTR
        MOV     R5,A
        MOV     A,#0x6
        LCALL   ?XSTACK_DISP0_8
        MOV     R2,DPL
        MOV     R3,DPH
        LCALL   ??memcpy?relay
        MOV     A,#0x2
        LCALL   ?DEALLOC_XSTACK8
        CFI CFA_XSP16 add(XSP16, 216)
//  596       data[4]='\0';
        MOV     A,#0x8
        LCALL   ?XSTACK_DISP0_8
        MOV     A,#0x0
        MOVX    @DPTR,A
//  597       sscanf((char*)data, "%4d", &dataID_int ); 
        ; Setup parameters for call to function sscanf
        MOV     A,#0x2
        LCALL   ?XSTACK_DISP0_8
        MOV     ?V0 + 0,DPL
        MOV     ?V0 + 1,DPH
        MOV     R0,#?V0 + 0
        LCALL   ?PUSH_XSTACK_I_TWO
        CFI CFA_XSP16 add(XSP16, 218)
        MOV     R4,#`?<Constant "%4d">` & 0xff
        MOV     R5,#(`?<Constant "%4d">` >> 8) & 0xff
        MOV     A,#0x6
        LCALL   ?XSTACK_DISP0_8
        MOV     R2,DPL
        MOV     R3,DPH
        LCALL   ??sscanf?relay
        MOV     A,#0x2
        LCALL   ?DEALLOC_XSTACK8
        CFI CFA_XSP16 add(XSP16, 216)
//  598       memcpy(data,(pkt->cmd.Data)+4,4);
        ; Setup parameters for call to function memcpy
        MOV     ?V0 + 0,#0x4
        MOV     ?V0 + 1,#0x0
        MOV     R0,#?V0 + 0
        LCALL   ?PUSH_XSTACK_I_TWO
        CFI CFA_XSP16 add(XSP16, 218)
        MOV     A,R6
        ADD     A,#0x22
        MOV     DPL,A
        MOV     A,R7
        ADDC    A,#0x0
        MOV     DPH,A
        MOVX    A,@DPTR
        ADD     A,#0x4
        MOV     R4,A
        INC     DPTR
        MOVX    A,@DPTR
        ADDC    A,#0x0
        MOV     R5,A
        MOV     A,#0x6
        LCALL   ?XSTACK_DISP0_8
        MOV     R2,DPL
        MOV     R3,DPH
        LCALL   ??memcpy?relay
        MOV     A,#0x2
        LCALL   ?DEALLOC_XSTACK8
        CFI CFA_XSP16 add(XSP16, 216)
//  599       data[4]='\0';
        MOV     A,#0x8
        LCALL   ?XSTACK_DISP0_8
        MOV     A,#0x0
        MOVX    @DPTR,A
//  600       sscanf((char*)data, "%4d", &dataLens ); 
        ; Setup parameters for call to function sscanf
        MOV     DPL,?XSP + 0
        MOV     DPH,?XSP + 1
        MOV     ?V0 + 0,DPL
        MOV     ?V0 + 1,DPH
        MOV     R0,#?V0 + 0
        LCALL   ?PUSH_XSTACK_I_TWO
        CFI CFA_XSP16 add(XSP16, 218)
        MOV     R4,#`?<Constant "%4d">` & 0xff
        MOV     R5,#(`?<Constant "%4d">` >> 8) & 0xff
        MOV     A,#0x6
        LCALL   ?XSTACK_DISP0_8
        MOV     R2,DPL
        MOV     R3,DPH
        LCALL   ??sscanf?relay
        MOV     A,#0x2
        LCALL   ?DEALLOC_XSTACK8
        CFI CFA_XSP16 add(XSP16, 216)
//  601       memcpy(data,pkt->cmd.Data+8,dataLens-8);
        ; Setup parameters for call to function memcpy
        MOV     DPL,?XSP + 0
        MOV     DPH,?XSP + 1
        MOVX    A,@DPTR
        ADD     A,#-0x8
        MOV     ?V0 + 0,A
        INC     DPTR
        MOVX    A,@DPTR
        ADDC    A,#-0x1
        MOV     ?V0 + 1,A
        MOV     R0,#?V0 + 0
        LCALL   ?PUSH_XSTACK_I_TWO
        CFI CFA_XSP16 add(XSP16, 218)
        MOV     A,R6
        ADD     A,#0x22
        MOV     DPL,A
        MOV     A,R7
        ADDC    A,#0x0
        MOV     DPH,A
        MOVX    A,@DPTR
        ADD     A,#0x8
        MOV     R4,A
        INC     DPTR
        MOVX    A,@DPTR
        ADDC    A,#0x0
        MOV     R5,A
        MOV     A,#0x6
        LCALL   ?XSTACK_DISP0_8
        MOV     R2,DPL
        MOV     R3,DPH
        LCALL   ??memcpy?relay
        MOV     A,#0x2
        LCALL   ?DEALLOC_XSTACK8
        CFI CFA_XSP16 add(XSP16, 216)
//  602       data[dataLens-8]='\0';
        MOV     DPL,?XSP + 0
        MOV     DPH,?XSP + 1
        MOVX    A,@DPTR
        MOV     R0,A
        INC     DPTR
        MOVX    A,@DPTR
        MOV     R1,A
        MOV     A,#0x4
        LCALL   ?XSTACK_DISP0_8
        MOV     A,DPL
        ADD     A,R0
        MOV     R0,A
        MOV     A,DPH
        ADDC    A,R1
        MOV     R1,A
        MOV     A,R0
        ADD     A,#-0x8
        MOV     DPL,A
        MOV     A,R1
        ADDC    A,#-0x1
        MOV     DPH,A
        MOV     A,#0x0
        MOVX    @DPTR,A
//  603       
//  604       
//  605       //sprintf(buff, "%s", pkt->cmd.Data);
//  606       HalLcdWriteString(data, HAL_LCD_LINE_4); //LCD显示
        ; Setup parameters for call to function HalLcdWriteString
        MOV     R1,#0x4
        MOV     A,#0x4
        LCALL   ?XSTACK_DISP0_8
        MOV     R2,DPL
        MOV     R3,DPH
        LCALL   ??HalLcdWriteString?relay
//  607       printf("%s", data);
        ; Setup parameters for call to function printf
        MOV     A,#0x4
        LCALL   ?XSTACK_DISP0_8
        MOV     ?V0 + 0,DPL
        MOV     ?V0 + 1,DPH
        MOV     R0,#?V0 + 0
        LCALL   ?PUSH_XSTACK_I_TWO
        CFI CFA_XSP16 add(XSP16, 218)
        MOV     R2,#`?<Constant "%s">` & 0xff
        MOV     R3,#(`?<Constant "%s">` >> 8) & 0xff
        LCALL   ??printf?relay
        MOV     A,#0x2
        LCALL   ?DEALLOC_XSTACK8
        CFI CFA_XSP16 add(XSP16, 216)
//  608       //SampleApp_getIEEEAddr(buff);
//  609       //HalLcdWriteString(buff, HAL_LCD_LINE_4); //LCD显示
//  610       switch(dataID_int)
        MOV     A,#0x2
        LCALL   ?XSTACK_DISP0_8
        MOVX    A,@DPTR
        MOV     ?V0 + 0,A
        INC     DPTR
        MOVX    A,@DPTR
        MOV     ?V0 + 1,A
        MOV     R0,#?V0 + 0
        LCALL   ?US_SWITCH_DENSE
`?<Jumptable for SampleApp_ProcessMSGCmd>_1`:
        DATA
        DATA16
        DATA
        DATA16
        DW        1001
        DATA
        DATA8
        DATA
        DATA8
        DB        4
        DATA
        DATA16
        DATA
        DATA16
        DW        ??SampleApp_ProcessMSGCmd_2
        DATA
        DATA16
        DATA
        DATA16
        DW        ??SampleApp_ProcessMSGCmd_3
        DATA
        DATA16
        DATA
        DATA16
        DW        ??SampleApp_ProcessMSGCmd_2
        DATA
        DATA16
        DATA
        DATA16
        DW        ??SampleApp_ProcessMSGCmd_4
        DATA
        DATA16
        DATA
        DATA16
        DW        ??SampleApp_ProcessMSGCmd_5
        DATA
        DATA16
        DATA
        DATA16
        DW        ??SampleApp_ProcessMSGCmd_6
        CODE
//  611       {
//  612       case 1003://终端向协调器发送IEEE事件，此处自动填写shortAddr映射表DevicesShortAddr，DevicesIEEEAddr
//  613         {
//  614           for(int i=0;i<sizeof(DevicesIEEEAddr)/sizeof(DevicesIEEEAddr[0]);i++)
??SampleApp_ProcessMSGCmd_4:
        MOV     ?V0 + 0,#0x0
        MOV     ?V0 + 1,#0x0
??SampleApp_ProcessMSGCmd_7:
        CLR     C
        MOV     A,?V0 + 0
        SUBB    A,#0x4
        MOV     A,?V0 + 1
        SUBB    A,#0x0
        JC      $+5
        LJMP    ??SampleApp_ProcessMSGCmd_2 & 0xFFFF
//  615           {
//  616             if(strncmp((char*)data,(char*)DevicesIEEEAddr[i],16)==0)
        ; Setup parameters for call to function strncmp
        MOV     ?V0 + 2,#0x10
        MOV     ?V0 + 3,#0x0
        MOV     R0,#?V0 + 2
        LCALL   ?PUSH_XSTACK_I_TWO
        CFI CFA_XSP16 add(XSP16, 218)
        MOV     R0,?V0 + 0
        MOV     R1,?V0 + 1
        MOV     A,R0
        MOV     B,#0x11
        MUL     AB
        XCH     A,R0
        MOV     R2,B
        MOV     B,#0x0
        MUL     AB
        ADD     A,R2
        MOV     R2,A
        MOV     B,#0x11
        MOV     A,?V0 + 1
        MUL     AB
        ADD     A,R2
        MOV     R1,A
        MOV     A,#DevicesIEEEAddr & 0xff
        ADD     A,R0
        MOV     R4,A
        MOV     A,#(DevicesIEEEAddr >> 8) & 0xff
        ADDC    A,R1
        MOV     R5,A
        MOV     A,#0x6
        LCALL   ?XSTACK_DISP0_8
        MOV     R2,DPL
        MOV     R3,DPH
        LCALL   ??strncmp?relay
        MOV     A,#0x2
        LCALL   ?DEALLOC_XSTACK8
        CFI CFA_XSP16 add(XSP16, 216)
        MOV     ?V0 + 2,R2
        MOV     ?V0 + 3,R3
        MOV     A,?V0 + 2
        ORL     A,?V0 + 3
        JZ      $+5
        LJMP    ??SampleApp_ProcessMSGCmd_8 & 0xFFFF
//  617             {
//  618               DevicesShortAddr[i]=pkt->srcAddr.addr.shortAddr;
        MOV     DPL,R6
        MOV     DPH,R7
        INC     DPTR
        INC     DPTR
        INC     DPTR
        INC     DPTR
        INC     DPTR
        INC     DPTR
        MOVX    A,@DPTR
        MOV     R2,A
        INC     DPTR
        MOVX    A,@DPTR
        MOV     R3,A
        MOV     R0,?V0 + 0
        MOV     R1,?V0 + 1
        MOV     A,R0
        MOV     B,#0x2
        MUL     AB
        XCH     A,R0
        MOV     R4,B
        MOV     B,#0x0
        MUL     AB
        ADD     A,R4
        MOV     R4,A
        MOV     B,#0x2
        MOV     A,?V0 + 1
        MUL     AB
        ADD     A,R4
        MOV     R1,A
        MOV     A,#DevicesShortAddr & 0xff
        ADD     A,R0
        MOV     DPL,A
        MOV     A,#(DevicesShortAddr >> 8) & 0xff
        ADDC    A,R1
        MOV     DPH,A
        MOV     A,R2
        MOVX    @DPTR,A
        INC     DPTR
        MOV     A,R3
        MOVX    @DPTR,A
//  619               sprintf((char*)data,"device %d linked",i);
        ; Setup parameters for call to function sprintf
        MOV     R0,#?V0 + 0
        LCALL   ?PUSH_XSTACK_I_TWO
        CFI CFA_XSP16 add(XSP16, 218)
        MOV     R4,#`?<Constant "device %d linked">` & 0xff
        MOV     R5,#(`?<Constant "device %d linked">` >> 8) & 0xff
        MOV     A,#0x6
        LCALL   ?XSTACK_DISP0_8
        MOV     R2,DPL
        MOV     R3,DPH
        LCALL   ??sprintf?relay
        MOV     A,#0x2
        LCALL   ?DEALLOC_XSTACK8
        CFI CFA_XSP16 add(XSP16, 216)
//  620               //HalLcdWriteString((char*)tmpData,i+1);
//  621               //SampleApp_getIEEEAddr(data);
//  622               //              SampleApp_SendPointToPointMessage(DevicesShortAddr[i],0x1004,tmpData,16);
//  623 #ifdef ZDO_COORDINATOR
//  624               if(onenet_login_ok==2)
        MOV     DPTR,#onenet_login_ok
        MOVX    A,@DPTR
        XRL     A,#0x2
        JNZ     ??SampleApp_ProcessMSGCmd_9
//  625               {
//  626                 sprintf(mqtt_message, "{\"flow\":201,\"msg\":\"%s Linked\"}",DevicesIEEEAddr[i]);
        ; Setup parameters for call to function sprintf
        MOV     A,?V0 + 0
        MOV     B,#0x11
        MUL     AB
        XCH     A,?V0 + 0
        MOV     R0,B
        MOV     B,#0x0
        MUL     AB
        ADD     A,R0
        MOV     R0,A
        MOV     B,#0x11
        MOV     A,?V0 + 1
        MUL     AB
        ADD     A,R0
        MOV     ?V0 + 1,A
        MOV     A,#DevicesIEEEAddr & 0xff
        ADD     A,?V0 + 0
        MOV     ?V0 + 0,A
        MOV     A,#(DevicesIEEEAddr >> 8) & 0xff
        ADDC    A,?V0 + 1
        MOV     ?V0 + 1,A
        MOV     R0,#?V0 + 0
        LCALL   ?PUSH_XSTACK_I_TWO
        CFI CFA_XSP16 add(XSP16, 218)
        MOV     R4,#`?<Constant "{\\"flow\\":201,\\"msg\\":\\"%s...">` & 0xff
        MOV     R5,#(`?<Constant "{\\"flow\\":201,\\"msg\\":\\"%s...">` >> 8) & 0xff
        MOV     R2,#mqtt_message & 0xff
        MOV     R3,#(mqtt_message >> 8) & 0xff
        LCALL   ??sprintf?relay
        MOV     A,#0x2
        LCALL   ?DEALLOC_XSTACK8
        CFI CFA_XSP16 add(XSP16, 216)
//  627                 OneNet_publish_topic(topics_post, mqtt_message);
        ; Setup parameters for call to function OneNet_publish_topic
        MOV     R4,#mqtt_message & 0xff
        MOV     R5,#(mqtt_message >> 8) & 0xff
        MOV     R2,#topics_post & 0xff
        MOV     R3,#(topics_post >> 8) & 0xff
        LCALL   ??OneNet_publish_topic?relay
        MOV     A,R1
//  628               }
//  629 #endif
//  630               break;
        SJMP    ??SampleApp_ProcessMSGCmd_9
//  631             }
//  632           }
??SampleApp_ProcessMSGCmd_8:
        MOV     A,?V0 + 0
        ADD     A,#0x1
        MOV     ?V0 + 0,A
        MOV     A,?V0 + 1
        ADDC    A,#0x0
        MOV     ?V0 + 1,A
        LJMP    ??SampleApp_ProcessMSGCmd_7 & 0xFFFF
//  633         }break;
??SampleApp_ProcessMSGCmd_9:
        LJMP    ??SampleApp_ProcessMSGCmd_2 & 0xFFFF
//  634       case 1001://心跳包数据事件
//  635         {
//  636           for(int i=0;i<sizeof(devicesOnline)/sizeof(devicesOnline[0]);i++)
??SampleApp_ProcessMSGCmd_3:
        MOV     R0,#0x0
        MOV     R1,#0x0
??SampleApp_ProcessMSGCmd_10:
        CLR     C
        MOV     A,R0
        SUBB    A,#0x4
        MOV     A,R1
        SUBB    A,#0x0
        JNC     ??SampleApp_ProcessMSGCmd_11
//  637           {
//  638             if(pkt->srcAddr.addr.shortAddr == DevicesShortAddr[i])
        MOV     DPL,R6
        MOV     DPH,R7
        INC     DPTR
        INC     DPTR
        INC     DPTR
        INC     DPTR
        INC     DPTR
        INC     DPTR
        MOVX    A,@DPTR
        MOV     R4,A
        INC     DPTR
        MOVX    A,@DPTR
        MOV     R5,A
        MOV     A,R0
        MOV     R2,A
        MOV     A,R1
        MOV     R3,A
        MOV     A,R2
        MOV     B,#0x2
        MUL     AB
        XCH     A,R2
        MOV     ?V0 + 0,B
        MOV     B,#0x0
        MUL     AB
        ADD     A,?V0 + 0
        MOV     ?V0 + 0,A
        MOV     B,#0x2
        MOV     A,R3
        MUL     AB
        ADD     A,?V0 + 0
        MOV     R3,A
        MOV     A,#DevicesShortAddr & 0xff
        ADD     A,R2
        MOV     DPL,A
        MOV     A,#(DevicesShortAddr >> 8) & 0xff
        ADDC    A,R3
        MOV     DPH,A
        MOVX    A,@DPTR
        XRL     A,R4
        JNZ     ??SampleApp_ProcessMSGCmd_12
        INC     DPTR
        MOVX    A,@DPTR
        XRL     A,R5
??SampleApp_ProcessMSGCmd_12:
        JNZ     ??SampleApp_ProcessMSGCmd_13
//  639             {
//  640               devicesOnline[i]=1;//发现心跳终端来信，即设置对应在线状态为在线
        MOV     A,R0
        MOV     B,#0x2
        MUL     AB
        XCH     A,R0
        MOV     R2,B
        MOV     B,#0x0
        MUL     AB
        ADD     A,R2
        MOV     R2,A
        MOV     B,#0x2
        MOV     A,R1
        MUL     AB
        ADD     A,R2
        MOV     R1,A
        MOV     A,#devicesOnline & 0xff
        ADD     A,R0
        MOV     DPL,A
        MOV     A,#(devicesOnline >> 8) & 0xff
        ADDC    A,R1
        MOV     DPH,A
        MOV     A,#0x1
        MOVX    @DPTR,A
        INC     DPTR
        MOV     A,#0x0
        MOVX    @DPTR,A
//  641               break;
        SJMP    ??SampleApp_ProcessMSGCmd_11
//  642             }
//  643           }
??SampleApp_ProcessMSGCmd_13:
        MOV     A,R0
        ADD     A,#0x1
        MOV     R0,A
        MOV     A,R1
        ADDC    A,#0x0
        MOV     R1,A
        SJMP    ??SampleApp_ProcessMSGCmd_10
//  644           
//  645         }break;
??SampleApp_ProcessMSGCmd_11:
        LJMP    ??SampleApp_ProcessMSGCmd_2 & 0xFFFF
//  646       case 1002://协调器向终端发送按键消息
//  647         {
//  648           
//  649         }break;
//  650       case 1004://终端收到协调器向终端转发的mqtt消息
//  651         {
//  652           if(NULL!=strstr(data,"switch1,1"))//判断消息设置开关switch1命令为开
??SampleApp_ProcessMSGCmd_5:
        ; Setup parameters for call to function strstr
        MOV     R4,#`?<Constant "switch1,1">` & 0xff
        MOV     R5,#(`?<Constant "switch1,1">` >> 8) & 0xff
        MOV     A,#0x4
        LCALL   ?XSTACK_DISP0_8
        MOV     R2,DPL
        MOV     R3,DPH
        LCALL   ??strstr?relay
        MOV     ?V0 + 0,R2
        MOV     ?V0 + 1,R3
        MOV     A,?V0 + 0
        ORL     A,?V0 + 1
        JZ      ??SampleApp_ProcessMSGCmd_14
//  653           {
//  654             P0_5 = 1;
        SETB    0x80.5
//  655             SampleApp_SendPointToPointMessage(0x0000,0x1005,data,strlen(data));
        ; Setup parameters for call to function SampleApp_SendPointToPointMessage
        ; Setup parameters for call to function strlen
        MOV     A,#0x4
        LCALL   ?XSTACK_DISP0_8
        MOV     R2,DPL
        MOV     R3,DPH
        LCALL   ??strlen?relay
        MOV     ?V0 + 0,R2
        MOV     ?V0 + 1,R3
        MOV     R0,#?V0 + 0
        LCALL   ?PUSH_XSTACK_I_TWO
        CFI CFA_XSP16 add(XSP16, 218)
        MOV     A,#0x6
        LCALL   ?XSTACK_DISP0_8
        MOV     ?V0 + 0,DPL
        MOV     ?V0 + 1,DPH
        MOV     R0,#?V0 + 0
        LCALL   ?PUSH_XSTACK_I_TWO
        CFI CFA_XSP16 add(XSP16, 220)
        MOV     R4,#0x5
        MOV     R5,#0x10
        MOV     R2,#0x0
        MOV     R3,#0x0
        LCALL   ??SampleApp_SendPointToPointMessage?relay
        MOV     A,#0x4
        LCALL   ?DEALLOC_XSTACK8
        CFI CFA_XSP16 add(XSP16, 216)
        LJMP    ??SampleApp_ProcessMSGCmd_2 & 0xFFFF
//  656           }
//  657           else if(NULL!=strstr(data,"switch1,0"))//判断消息设置开关switch1命令为关
??SampleApp_ProcessMSGCmd_14:
        ; Setup parameters for call to function strstr
        MOV     R4,#`?<Constant "switch1,0">` & 0xff
        MOV     R5,#(`?<Constant "switch1,0">` >> 8) & 0xff
        MOV     A,#0x4
        LCALL   ?XSTACK_DISP0_8
        MOV     R2,DPL
        MOV     R3,DPH
        LCALL   ??strstr?relay
        MOV     ?V0 + 0,R2
        MOV     ?V0 + 1,R3
        MOV     A,?V0 + 0
        ORL     A,?V0 + 1
        JZ      ??SampleApp_ProcessMSGCmd_15
//  658           {
//  659             P0_5 = 0;
        CLR     0x80.5
//  660             SampleApp_SendPointToPointMessage(0x0000,0x1005,data,strlen(data));            
        ; Setup parameters for call to function SampleApp_SendPointToPointMessage
        ; Setup parameters for call to function strlen
        MOV     A,#0x4
        LCALL   ?XSTACK_DISP0_8
        MOV     R2,DPL
        MOV     R3,DPH
        LCALL   ??strlen?relay
        MOV     ?V0 + 0,R2
        MOV     ?V0 + 1,R3
        MOV     R0,#?V0 + 0
        LCALL   ?PUSH_XSTACK_I_TWO
        CFI CFA_XSP16 add(XSP16, 218)
        MOV     A,#0x6
        LCALL   ?XSTACK_DISP0_8
        MOV     ?V0 + 0,DPL
        MOV     ?V0 + 1,DPH
        MOV     R0,#?V0 + 0
        LCALL   ?PUSH_XSTACK_I_TWO
        CFI CFA_XSP16 add(XSP16, 220)
        MOV     R4,#0x5
        MOV     R5,#0x10
        MOV     R2,#0x0
        MOV     R3,#0x0
        LCALL   ??SampleApp_SendPointToPointMessage?relay
        MOV     A,#0x4
        LCALL   ?DEALLOC_XSTACK8
        CFI CFA_XSP16 add(XSP16, 216)
        LJMP    ??SampleApp_ProcessMSGCmd_2 & 0xFFFF
//  661           }
//  662           else if(NULL!=strstr(data,"switch2,1"))//判断消息设置开关switch2命令为关开
??SampleApp_ProcessMSGCmd_15:
        ; Setup parameters for call to function strstr
        MOV     R4,#`?<Constant "switch2,1">` & 0xff
        MOV     R5,#(`?<Constant "switch2,1">` >> 8) & 0xff
        MOV     A,#0x4
        LCALL   ?XSTACK_DISP0_8
        MOV     R2,DPL
        MOV     R3,DPH
        LCALL   ??strstr?relay
        MOV     ?V0 + 0,R2
        MOV     ?V0 + 1,R3
        MOV     A,?V0 + 0
        ORL     A,?V0 + 1
        JZ      ??SampleApp_ProcessMSGCmd_16
//  663           {
//  664             P0_7 = 1;
        SETB    0x80.7
//  665             SampleApp_SendPointToPointMessage(0x0000,0x1005,data,strlen(data));
        ; Setup parameters for call to function SampleApp_SendPointToPointMessage
        ; Setup parameters for call to function strlen
        MOV     A,#0x4
        LCALL   ?XSTACK_DISP0_8
        MOV     R2,DPL
        MOV     R3,DPH
        LCALL   ??strlen?relay
        MOV     ?V0 + 0,R2
        MOV     ?V0 + 1,R3
        MOV     R0,#?V0 + 0
        LCALL   ?PUSH_XSTACK_I_TWO
        CFI CFA_XSP16 add(XSP16, 218)
        MOV     A,#0x6
        LCALL   ?XSTACK_DISP0_8
        MOV     ?V0 + 0,DPL
        MOV     ?V0 + 1,DPH
        MOV     R0,#?V0 + 0
        LCALL   ?PUSH_XSTACK_I_TWO
        CFI CFA_XSP16 add(XSP16, 220)
        MOV     R4,#0x5
        MOV     R5,#0x10
        MOV     R2,#0x0
        MOV     R3,#0x0
        LCALL   ??SampleApp_SendPointToPointMessage?relay
        MOV     A,#0x4
        LCALL   ?DEALLOC_XSTACK8
        CFI CFA_XSP16 add(XSP16, 216)
        LJMP    ??SampleApp_ProcessMSGCmd_2 & 0xFFFF
//  666           }
//  667           else if(NULL!=strstr(data,"switch2,0"))//判断消息设置开关switch2命令为关
??SampleApp_ProcessMSGCmd_16:
        ; Setup parameters for call to function strstr
        MOV     R4,#`?<Constant "switch2,0">` & 0xff
        MOV     R5,#(`?<Constant "switch2,0">` >> 8) & 0xff
        MOV     A,#0x4
        LCALL   ?XSTACK_DISP0_8
        MOV     R2,DPL
        MOV     R3,DPH
        LCALL   ??strstr?relay
        MOV     ?V0 + 0,R2
        MOV     ?V0 + 1,R3
        MOV     A,?V0 + 0
        ORL     A,?V0 + 1
        JZ      ??SampleApp_ProcessMSGCmd_17
//  668           {
//  669             P0_7 = 0;
        CLR     0x80.7
//  670             SampleApp_SendPointToPointMessage(0x0000,0x1005,data,strlen(data));
        ; Setup parameters for call to function SampleApp_SendPointToPointMessage
        ; Setup parameters for call to function strlen
        MOV     A,#0x4
        LCALL   ?XSTACK_DISP0_8
        MOV     R2,DPL
        MOV     R3,DPH
        LCALL   ??strlen?relay
        MOV     ?V0 + 0,R2
        MOV     ?V0 + 1,R3
        MOV     R0,#?V0 + 0
        LCALL   ?PUSH_XSTACK_I_TWO
        CFI CFA_XSP16 add(XSP16, 218)
        MOV     A,#0x6
        LCALL   ?XSTACK_DISP0_8
        MOV     ?V0 + 0,DPL
        MOV     ?V0 + 1,DPH
        MOV     R0,#?V0 + 0
        LCALL   ?PUSH_XSTACK_I_TWO
        CFI CFA_XSP16 add(XSP16, 220)
        MOV     R4,#0x5
        MOV     R5,#0x10
        MOV     R2,#0x0
        MOV     R3,#0x0
        LCALL   ??SampleApp_SendPointToPointMessage?relay
        MOV     A,#0x4
        LCALL   ?DEALLOC_XSTACK8
        CFI CFA_XSP16 add(XSP16, 216)
        LJMP    ??SampleApp_ProcessMSGCmd_2 & 0xFFFF
//  671           }
//  672           
//  673           else if(NULL!=strstr(data,"switch1,ck"))//判断消息查询开关switch1命令
??SampleApp_ProcessMSGCmd_17:
        ; Setup parameters for call to function strstr
        MOV     R4,#`?<Constant "switch1,ck">` & 0xff
        MOV     R5,#(`?<Constant "switch1,ck">` >> 8) & 0xff
        MOV     A,#0x4
        LCALL   ?XSTACK_DISP0_8
        MOV     R2,DPL
        MOV     R3,DPH
        LCALL   ??strstr?relay
        MOV     ?V0 + 0,R2
        MOV     ?V0 + 1,R3
        MOV     A,?V0 + 0
        ORL     A,?V0 + 1
        JNZ     $+5
        LJMP    ??SampleApp_ProcessMSGCmd_18 & 0xFFFF
//  674           {
//  675             data[strlen(data)-2]='\0';
        ; Setup parameters for call to function strlen
        MOV     A,#0x4
        LCALL   ?XSTACK_DISP0_8
        MOV     R2,DPL
        MOV     R3,DPH
        LCALL   ??strlen?relay
        MOV     ?V0 + 0,R2
        MOV     ?V0 + 1,R3
        MOV     A,#0x4
        LCALL   ?XSTACK_DISP0_8
        MOV     A,DPL
        ADD     A,?V0 + 0
        MOV     R0,A
        MOV     A,DPH
        ADDC    A,?V0 + 1
        MOV     R1,A
        MOV     A,R0
        ADD     A,#-0x2
        MOV     DPL,A
        MOV     A,R1
        ADDC    A,#-0x1
        MOV     DPH,A
        MOV     A,#0x0
        MOVX    @DPTR,A
//  676             sprintf(data,"%s%d",data,P0_5);
        ; Setup parameters for call to function sprintf
        MOV     C,0x80.5
        CLR     A
        RLC     A
        MOV     ?V0 + 0,A
        MOV     ?V0 + 1,#0x0
        MOV     R0,#?V0 + 0
        LCALL   ?PUSH_XSTACK_I_TWO
        CFI CFA_XSP16 add(XSP16, 218)
        MOV     A,#0x6
        LCALL   ?XSTACK_DISP0_8
        MOV     ?V0 + 0,DPL
        MOV     ?V0 + 1,DPH
        MOV     R0,#?V0 + 0
        LCALL   ?PUSH_XSTACK_I_TWO
        CFI CFA_XSP16 add(XSP16, 220)
        MOV     R4,#`?<Constant "%s%d">` & 0xff
        MOV     R5,#(`?<Constant "%s%d">` >> 8) & 0xff
        MOV     A,#0x8
        LCALL   ?XSTACK_DISP0_8
        MOV     R2,DPL
        MOV     R3,DPH
        LCALL   ??sprintf?relay
        MOV     A,#0x4
        LCALL   ?DEALLOC_XSTACK8
        CFI CFA_XSP16 add(XSP16, 216)
//  677             SampleApp_SendPointToPointMessage(0x0000,0x1005,data,strlen(data));
        ; Setup parameters for call to function SampleApp_SendPointToPointMessage
        ; Setup parameters for call to function strlen
        MOV     A,#0x4
        LCALL   ?XSTACK_DISP0_8
        MOV     R2,DPL
        MOV     R3,DPH
        LCALL   ??strlen?relay
        MOV     ?V0 + 0,R2
        MOV     ?V0 + 1,R3
        MOV     R0,#?V0 + 0
        LCALL   ?PUSH_XSTACK_I_TWO
        CFI CFA_XSP16 add(XSP16, 218)
        MOV     A,#0x6
        LCALL   ?XSTACK_DISP0_8
        MOV     ?V0 + 0,DPL
        MOV     ?V0 + 1,DPH
        MOV     R0,#?V0 + 0
        LCALL   ?PUSH_XSTACK_I_TWO
        CFI CFA_XSP16 add(XSP16, 220)
        MOV     R4,#0x5
        MOV     R5,#0x10
        MOV     R2,#0x0
        MOV     R3,#0x0
        LCALL   ??SampleApp_SendPointToPointMessage?relay
        MOV     A,#0x4
        LCALL   ?DEALLOC_XSTACK8
        CFI CFA_XSP16 add(XSP16, 216)
        LJMP    ??SampleApp_ProcessMSGCmd_2 & 0xFFFF
//  678           }
//  679           else if(NULL!=strstr(data,"switch2,ck"))//判断消息查询开关switch2命令
??SampleApp_ProcessMSGCmd_18:
        ; Setup parameters for call to function strstr
        MOV     R4,#`?<Constant "switch2,ck">` & 0xff
        MOV     R5,#(`?<Constant "switch2,ck">` >> 8) & 0xff
        MOV     A,#0x4
        LCALL   ?XSTACK_DISP0_8
        MOV     R2,DPL
        MOV     R3,DPH
        LCALL   ??strstr?relay
        MOV     ?V0 + 0,R2
        MOV     ?V0 + 1,R3
        MOV     A,?V0 + 0
        ORL     A,?V0 + 1
        JNZ     $+5
        LJMP    ??SampleApp_ProcessMSGCmd_2 & 0xFFFF
//  680           {
//  681             data[strlen(data)-2]='\0';
        ; Setup parameters for call to function strlen
        MOV     A,#0x4
        LCALL   ?XSTACK_DISP0_8
        MOV     R2,DPL
        MOV     R3,DPH
        LCALL   ??strlen?relay
        MOV     ?V0 + 0,R2
        MOV     ?V0 + 1,R3
        MOV     A,#0x4
        LCALL   ?XSTACK_DISP0_8
        MOV     A,DPL
        ADD     A,?V0 + 0
        MOV     R0,A
        MOV     A,DPH
        ADDC    A,?V0 + 1
        MOV     R1,A
        MOV     A,R0
        ADD     A,#-0x2
        MOV     DPL,A
        MOV     A,R1
        ADDC    A,#-0x1
        MOV     DPH,A
        MOV     A,#0x0
        MOVX    @DPTR,A
//  682             sprintf(data,"%s%d",data,P0_7);
        ; Setup parameters for call to function sprintf
        MOV     C,0x80.7
        CLR     A
        RLC     A
        MOV     ?V0 + 0,A
        MOV     ?V0 + 1,#0x0
        MOV     R0,#?V0 + 0
        LCALL   ?PUSH_XSTACK_I_TWO
        CFI CFA_XSP16 add(XSP16, 218)
        MOV     A,#0x6
        LCALL   ?XSTACK_DISP0_8
        MOV     ?V0 + 0,DPL
        MOV     ?V0 + 1,DPH
        MOV     R0,#?V0 + 0
        LCALL   ?PUSH_XSTACK_I_TWO
        CFI CFA_XSP16 add(XSP16, 220)
        MOV     R4,#`?<Constant "%s%d">` & 0xff
        MOV     R5,#(`?<Constant "%s%d">` >> 8) & 0xff
        MOV     A,#0x8
        LCALL   ?XSTACK_DISP0_8
        MOV     R2,DPL
        MOV     R3,DPH
        LCALL   ??sprintf?relay
        MOV     A,#0x4
        LCALL   ?DEALLOC_XSTACK8
        CFI CFA_XSP16 add(XSP16, 216)
//  683             SampleApp_SendPointToPointMessage(0x0000,0x1005,data,strlen(data));            
        ; Setup parameters for call to function SampleApp_SendPointToPointMessage
        ; Setup parameters for call to function strlen
        MOV     A,#0x4
        LCALL   ?XSTACK_DISP0_8
        MOV     R2,DPL
        MOV     R3,DPH
        LCALL   ??strlen?relay
        MOV     ?V0 + 0,R2
        MOV     ?V0 + 1,R3
        MOV     R0,#?V0 + 0
        LCALL   ?PUSH_XSTACK_I_TWO
        CFI CFA_XSP16 add(XSP16, 218)
        MOV     A,#0x6
        LCALL   ?XSTACK_DISP0_8
        MOV     ?V0 + 0,DPL
        MOV     ?V0 + 1,DPH
        MOV     R0,#?V0 + 0
        LCALL   ?PUSH_XSTACK_I_TWO
        CFI CFA_XSP16 add(XSP16, 220)
        MOV     R4,#0x5
        MOV     R5,#0x10
        MOV     R2,#0x0
        MOV     R3,#0x0
        LCALL   ??SampleApp_SendPointToPointMessage?relay
        MOV     A,#0x4
        LCALL   ?DEALLOC_XSTACK8
        CFI CFA_XSP16 add(XSP16, 216)
//  684           }
//  685         }break;
        SJMP    ??SampleApp_ProcessMSGCmd_2
//  686       case 1005://协调器收到终端向反馈的查询结果  data = "dev2,switch1,0",立即发送给服务器
//  687         {
//  688           //todo
//  689           //查询结果消息为{"msg":"dev2,switch1,0","flow":201}
//  690           #ifdef ZDO_COORDINATOR
//  691           if(onenet_login_ok==2)
??SampleApp_ProcessMSGCmd_6:
        MOV     DPTR,#onenet_login_ok
        MOVX    A,@DPTR
        XRL     A,#0x2
        JNZ     ??SampleApp_ProcessMSGCmd_2
//  692           {
//  693             Response2mqtt(data);
        ; Setup parameters for call to function Response2mqtt
        MOV     A,#0x4
        LCALL   ?XSTACK_DISP0_8
        MOV     R2,DPL
        MOV     R3,DPH
        LCALL   ??Response2mqtt?relay
//  694           }
//  695           #endif
//  696         }break;
//  697       }
//  698 #ifdef ZDO_COORDINATOR
//  699       if(onenet_login_ok==3)
??SampleApp_ProcessMSGCmd_2:
        MOV     DPTR,#onenet_login_ok
        MOVX    A,@DPTR
        XRL     A,#0x3
        JNZ     ??SampleApp_ProcessMSGCmd_0
//  700       {
//  701         //发送温湿度数据到onenet
//  702         //    OneNet_SendData(end_temp, end_hum);
//  703         
//  704         sprintf(mqtt_message, 
//  705                 "{\"method\":\"thing.service.property.set\",\"id\":\"630262306\",\"params\":{\ 
//  706                   \"code\":\"%s\"\ 
//  707       },\"version\":\"1.0.0\"}",
//  708       data);
        ; Setup parameters for call to function sprintf
        MOV     A,#0x4
        LCALL   ?XSTACK_DISP0_8
        MOV     ?V0 + 0,DPL
        MOV     ?V0 + 1,DPH
        MOV     R0,#?V0 + 0
        LCALL   ?PUSH_XSTACK_I_TWO
        CFI CFA_XSP16 add(XSP16, 218)
        MOV     R4,#`?<Constant "{\\"method\\":\\"thing.serv...">_1` & 0xff
        MOV     R5,#(`?<Constant "{\\"method\\":\\"thing.serv...">_1` >> 8) & 0xff
        MOV     R2,#mqtt_message & 0xff
        MOV     R3,#(mqtt_message >> 8) & 0xff
        LCALL   ??sprintf?relay
        MOV     A,#0x2
        LCALL   ?DEALLOC_XSTACK8
        CFI CFA_XSP16 add(XSP16, 216)
//  709       //mqtt_publish_topic(topics_post, mqtt_message);
//  710       
//  711       //  OneNet_publish_topic();
//  712       }
//  713 #endif
//  714     }break;
//  715     
//  716   case SAMPLEAPP_PERIODIC_CLUSTERID:
//  717     
//  718     break;
//  719     
//  720   default:
//  721     break;
//  722   }
//  723 }
??SampleApp_ProcessMSGCmd_0:
        MOV     A,#-0x34
        LCALL   ?DEALLOC_XSTACK8
        CFI CFA_XSP16 add(XSP16, 12)
        MOV     R7,#0x4
        LJMP    ?BANKED_LEAVE_XDATA
        CFI EndBlock cfiBlock3
        REQUIRE _A_P0
//  724 
//  725 #ifdef ZDO_COORDINATOR
//  726 
//  727 //发送MQTT数据

        RSEG BANKED_CODE:CODE:NOROOT(0)
//  728 void ESP8266_SendData(char* buff, int len)
ESP8266_SendData:
        CFI Block cfiBlock4 Using cfiCommon0
        CFI Function ESP8266_SendData
        CODE
//  729 {
        FUNCALL ESP8266_SendData, HalUARTWrite
        LOCFRAME ISTACK, 0, STACK
        LOCFRAME PSTACK, 0, STACK
        LOCFRAME XSTACK, 10, STACK
        LOCFRAME IOVERLAY, 0, STATIC
        LOCFRAME DOVERLAY, 0, STATIC
        ARGFRAME ISTACK, 0, STACK
        ARGFRAME PSTACK, 0, STACK
        ARGFRAME XSTACK, 10, STACK
        ARGFRAME IOVERLAY, 0, STATIC
        ARGFRAME DOVERLAY, 0, STATIC
        MOV     A,#-0xa
        LCALL   ?BANKED_ENTER_XDATA
        CFI DPH0 load(1, XDATA, add(CFA_XSP16, literal(-1)))
        CFI DPL0 load(1, XDATA, add(CFA_XSP16, literal(-2)))
        CFI ?BRET_EXT load(1, XDATA, add(CFA_XSP16, literal(-3)))
        CFI ?RET_HIGH load(1, XDATA, add(CFA_XSP16, literal(-4)))
        CFI ?RET_LOW load(1, XDATA, add(CFA_XSP16, literal(-5)))
        CFI R7 load(1, XDATA, add(CFA_XSP16, literal(-6)))
        CFI V1 load(1, XDATA, add(CFA_XSP16, literal(-7)))
        CFI V0 load(1, XDATA, add(CFA_XSP16, literal(-8)))
        CFI VB load(1, XDATA, add(CFA_XSP16, literal(-9)))
        CFI R6 load(1, XDATA, add(CFA_XSP16, literal(-10)))
        CFI CFA_SP SP+0
        CFI CFA_XSP16 add(XSP16, 10)
        ; Saved register size: 10
        ; Auto size: 0
        MOV     ?V0 + 0,R2
        MOV     ?V0 + 1,R3
        MOV     A,R4
        MOV     R6,A
        MOV     A,R5
        MOV     R7,A
//  730   if(len==0) return;
        MOV     A,R6
        ORL     A,R7
        JZ      ??ESP8266_SendData_0
//  731   
//  732   HalUARTWrite(0,buff, len);
        ; Setup parameters for call to function HalUARTWrite
        MOV     A,R6
        MOV     R4,A
        MOV     A,R7
        MOV     R5,A
        MOV     R2,?V0 + 0
        MOV     R3,?V0 + 1
        MOV     R1,#0x0
        LCALL   ??HalUARTWrite?relay
//  733 }
??ESP8266_SendData_0:
        MOV     R7,#0x2
        LJMP    ?BANKED_LEAVE_XDATA
        CFI EndBlock cfiBlock4
//  734 
//  735 
//  736 //接收到下发命令，或者接收到订阅的消息
//  737 //topic:收到的主题
//  738 //cmd::主题对应的内容

        RSEG BANKED_CODE:CODE:NOROOT(0)
//  739 void mqtt_rx(uint8* topic, uint8* cmd)
mqtt_rx:
        CFI Block cfiBlock5 Using cfiCommon0
        CFI Function mqtt_rx
        CODE
//  740 {
        FUNCALL mqtt_rx, HalLcdWriteString
        LOCFRAME ISTACK, 0, STACK
        LOCFRAME PSTACK, 0, STACK
        LOCFRAME XSTACK, 314, STACK
        LOCFRAME IOVERLAY, 0, STATIC
        LOCFRAME DOVERLAY, 0, STATIC
        ARGFRAME ISTACK, 0, STACK
        ARGFRAME PSTACK, 0, STACK
        ARGFRAME XSTACK, 314, STACK
        ARGFRAME IOVERLAY, 0, STATIC
        ARGFRAME DOVERLAY, 0, STATIC
        FUNCALL mqtt_rx, HalLcdWriteString
        LOCFRAME ISTACK, 0, STACK
        LOCFRAME PSTACK, 0, STACK
        LOCFRAME XSTACK, 314, STACK
        LOCFRAME IOVERLAY, 0, STATIC
        LOCFRAME DOVERLAY, 0, STATIC
        ARGFRAME ISTACK, 0, STACK
        ARGFRAME PSTACK, 0, STACK
        ARGFRAME XSTACK, 314, STACK
        ARGFRAME IOVERLAY, 0, STATIC
        ARGFRAME DOVERLAY, 0, STATIC
        FUNCALL mqtt_rx, strlen
        LOCFRAME ISTACK, 0, STACK
        LOCFRAME PSTACK, 0, STACK
        LOCFRAME XSTACK, 314, STACK
        LOCFRAME IOVERLAY, 0, STATIC
        LOCFRAME DOVERLAY, 0, STATIC
        ARGFRAME ISTACK, 0, STACK
        ARGFRAME PSTACK, 0, STACK
        ARGFRAME XSTACK, 314, STACK
        ARGFRAME IOVERLAY, 0, STATIC
        ARGFRAME DOVERLAY, 0, STATIC
        FUNCALL mqtt_rx, memcpy
        LOCFRAME ISTACK, 0, STACK
        LOCFRAME PSTACK, 0, STACK
        LOCFRAME XSTACK, 316, STACK
        LOCFRAME IOVERLAY, 0, STATIC
        LOCFRAME DOVERLAY, 0, STATIC
        ARGFRAME ISTACK, 0, STACK
        ARGFRAME PSTACK, 0, STACK
        ARGFRAME XSTACK, 316, STACK
        ARGFRAME IOVERLAY, 0, STATIC
        ARGFRAME DOVERLAY, 0, STATIC
        FUNCALL mqtt_rx, strrchr
        LOCFRAME ISTACK, 0, STACK
        LOCFRAME PSTACK, 0, STACK
        LOCFRAME XSTACK, 314, STACK
        LOCFRAME IOVERLAY, 0, STATIC
        LOCFRAME DOVERLAY, 0, STATIC
        ARGFRAME ISTACK, 0, STACK
        ARGFRAME PSTACK, 0, STACK
        ARGFRAME XSTACK, 314, STACK
        ARGFRAME IOVERLAY, 0, STATIC
        ARGFRAME DOVERLAY, 0, STATIC
        FUNCALL mqtt_rx, strlen
        LOCFRAME ISTACK, 0, STACK
        LOCFRAME PSTACK, 0, STACK
        LOCFRAME XSTACK, 314, STACK
        LOCFRAME IOVERLAY, 0, STATIC
        LOCFRAME DOVERLAY, 0, STATIC
        ARGFRAME ISTACK, 0, STACK
        ARGFRAME PSTACK, 0, STACK
        ARGFRAME XSTACK, 314, STACK
        ARGFRAME IOVERLAY, 0, STATIC
        ARGFRAME DOVERLAY, 0, STATIC
        FUNCALL mqtt_rx, memcpy
        LOCFRAME ISTACK, 0, STACK
        LOCFRAME PSTACK, 0, STACK
        LOCFRAME XSTACK, 316, STACK
        LOCFRAME IOVERLAY, 0, STATIC
        LOCFRAME DOVERLAY, 0, STATIC
        ARGFRAME ISTACK, 0, STACK
        ARGFRAME PSTACK, 0, STACK
        ARGFRAME XSTACK, 316, STACK
        ARGFRAME IOVERLAY, 0, STATIC
        ARGFRAME DOVERLAY, 0, STATIC
        FUNCALL mqtt_rx, strcmp
        LOCFRAME ISTACK, 0, STACK
        LOCFRAME PSTACK, 0, STACK
        LOCFRAME XSTACK, 314, STACK
        LOCFRAME IOVERLAY, 0, STATIC
        LOCFRAME DOVERLAY, 0, STATIC
        ARGFRAME ISTACK, 0, STACK
        ARGFRAME PSTACK, 0, STACK
        ARGFRAME XSTACK, 314, STACK
        ARGFRAME IOVERLAY, 0, STATIC
        ARGFRAME DOVERLAY, 0, STATIC
        FUNCALL mqtt_rx, strlen
        LOCFRAME ISTACK, 0, STACK
        LOCFRAME PSTACK, 0, STACK
        LOCFRAME XSTACK, 314, STACK
        LOCFRAME IOVERLAY, 0, STATIC
        LOCFRAME DOVERLAY, 0, STATIC
        ARGFRAME ISTACK, 0, STACK
        ARGFRAME PSTACK, 0, STACK
        ARGFRAME XSTACK, 314, STACK
        ARGFRAME IOVERLAY, 0, STATIC
        ARGFRAME DOVERLAY, 0, STATIC
        FUNCALL mqtt_rx, memcpy
        LOCFRAME ISTACK, 0, STACK
        LOCFRAME PSTACK, 0, STACK
        LOCFRAME XSTACK, 316, STACK
        LOCFRAME IOVERLAY, 0, STATIC
        LOCFRAME DOVERLAY, 0, STATIC
        ARGFRAME ISTACK, 0, STACK
        ARGFRAME PSTACK, 0, STACK
        ARGFRAME XSTACK, 316, STACK
        ARGFRAME IOVERLAY, 0, STATIC
        ARGFRAME DOVERLAY, 0, STATIC
        FUNCALL mqtt_rx, osal_start_timerEx
        LOCFRAME ISTACK, 0, STACK
        LOCFRAME PSTACK, 0, STACK
        LOCFRAME XSTACK, 314, STACK
        LOCFRAME IOVERLAY, 0, STATIC
        LOCFRAME DOVERLAY, 0, STATIC
        ARGFRAME ISTACK, 0, STACK
        ARGFRAME PSTACK, 0, STACK
        ARGFRAME XSTACK, 314, STACK
        ARGFRAME IOVERLAY, 0, STATIC
        ARGFRAME DOVERLAY, 0, STATIC
        FUNCALL mqtt_rx, HalLcdWriteString
        LOCFRAME ISTACK, 0, STACK
        LOCFRAME PSTACK, 0, STACK
        LOCFRAME XSTACK, 314, STACK
        LOCFRAME IOVERLAY, 0, STATIC
        LOCFRAME DOVERLAY, 0, STATIC
        ARGFRAME ISTACK, 0, STACK
        ARGFRAME PSTACK, 0, STACK
        ARGFRAME XSTACK, 314, STACK
        ARGFRAME IOVERLAY, 0, STATIC
        ARGFRAME DOVERLAY, 0, STATIC
        FUNCALL mqtt_rx, Response2mqtt
        LOCFRAME ISTACK, 0, STACK
        LOCFRAME PSTACK, 0, STACK
        LOCFRAME XSTACK, 314, STACK
        LOCFRAME IOVERLAY, 0, STATIC
        LOCFRAME DOVERLAY, 0, STATIC
        ARGFRAME ISTACK, 0, STACK
        ARGFRAME PSTACK, 0, STACK
        ARGFRAME XSTACK, 314, STACK
        ARGFRAME IOVERLAY, 0, STATIC
        ARGFRAME DOVERLAY, 0, STATIC
        FUNCALL mqtt_rx, HalLcdWriteString
        LOCFRAME ISTACK, 0, STACK
        LOCFRAME PSTACK, 0, STACK
        LOCFRAME XSTACK, 314, STACK
        LOCFRAME IOVERLAY, 0, STATIC
        LOCFRAME DOVERLAY, 0, STATIC
        ARGFRAME ISTACK, 0, STACK
        ARGFRAME PSTACK, 0, STACK
        ARGFRAME XSTACK, 314, STACK
        ARGFRAME IOVERLAY, 0, STATIC
        ARGFRAME DOVERLAY, 0, STATIC
        MOV     A,#-0xe
        LCALL   ?BANKED_ENTER_XDATA
        CFI DPH0 load(1, XDATA, add(CFA_XSP16, literal(-1)))
        CFI DPL0 load(1, XDATA, add(CFA_XSP16, literal(-2)))
        CFI ?BRET_EXT load(1, XDATA, add(CFA_XSP16, literal(-3)))
        CFI ?RET_HIGH load(1, XDATA, add(CFA_XSP16, literal(-4)))
        CFI ?RET_LOW load(1, XDATA, add(CFA_XSP16, literal(-5)))
        CFI R7 load(1, XDATA, add(CFA_XSP16, literal(-6)))
        CFI V5 load(1, XDATA, add(CFA_XSP16, literal(-7)))
        CFI V4 load(1, XDATA, add(CFA_XSP16, literal(-8)))
        CFI V3 load(1, XDATA, add(CFA_XSP16, literal(-9)))
        CFI V2 load(1, XDATA, add(CFA_XSP16, literal(-10)))
        CFI V1 load(1, XDATA, add(CFA_XSP16, literal(-11)))
        CFI V0 load(1, XDATA, add(CFA_XSP16, literal(-12)))
        CFI VB load(1, XDATA, add(CFA_XSP16, literal(-13)))
        CFI R6 load(1, XDATA, add(CFA_XSP16, literal(-14)))
        CFI CFA_SP SP+0
        CFI CFA_XSP16 add(XSP16, 14)
        ; Saved register size: 14
        ; Auto size: 300
        MOV     DPL,#-0x2c
        MOV     DPH,#-0x2
        LCALL   ?ADD_XSTACK_DISP0_16
        CFI CFA_XSP16 add(XSP16, 314)
        MOV     ?V0 + 2,R2
        MOV     ?V0 + 3,R3
        MOV     ?V0 + 0,R4
        MOV     ?V0 + 1,R5
//  741   
//  742   /*
//  743   /a1xaMw4YerO/device/user/receive
//  744   {
//  745   "msg":"balabala",
//  746   "flow":201  //201表示数据流转方向为设备2流向设备1
//  747 }
//  748   */
//  749   
//  750   HalLcdWriteString((char*)topic, HAL_LCD_LINE_1); //LCD显示
        ; Setup parameters for call to function HalLcdWriteString
        MOV     R1,#0x1
        MOV     R2,?V0 + 2
        MOV     R3,?V0 + 3
        LCALL   ??HalLcdWriteString?relay
//  751   HalLcdWriteString((char*)cmd, HAL_LCD_LINE_2); //LCD显示
        ; Setup parameters for call to function HalLcdWriteString
        MOV     R1,#0x2
        MOV     R2,?V0 + 0
        MOV     R3,?V0 + 1
        LCALL   ??HalLcdWriteString?relay
//  752   if(topic == NULL || cmd==NULL) return;
        MOV     A,?V0 + 2
        ORL     A,?V0 + 3
        JZ      ??mqtt_rx_0
        MOV     A,?V0 + 0
        ORL     A,?V0 + 1
        JNZ     ??mqtt_rx_1
??mqtt_rx_0:
        LJMP    ??mqtt_rx_2 & 0xFFFF
//  753   uint8 buff[100]={0};
??mqtt_rx_1:
        MOV     DPTR,#`?<Constant {0}>_3`
        PUSH    DPL
        CFI CFA_SP SP+-1
        PUSH    DPH
        CFI CFA_SP SP+-2
        MOV     A,#-0x38
        LCALL   ?XSTACK_DISP0_8
        MOV     R4,DPL
        MOV     R5,DPH
        POP     DPH
        CFI CFA_SP SP+-1
        POP     DPL
        CFI CFA_SP SP+0
        MOV     A,#0x64
        LCALL   ?MOVE_LONG8_XDATA_XDATA
//  754   uint8 method[100]={0};
        MOV     DPTR,#`?<Constant {0}>_4`
        PUSH    DPL
        CFI CFA_SP SP+-1
        PUSH    DPH
        CFI CFA_SP SP+-2
        MOV     A,#0x64
        LCALL   ?XSTACK_DISP0_8
        MOV     R4,DPL
        MOV     R5,DPH
        POP     DPH
        CFI CFA_SP SP+-1
        POP     DPL
        CFI CFA_SP SP+0
        MOV     A,#0x64
        LCALL   ?MOVE_LONG8_XDATA_XDATA
//  755   uint8 msg[100]={0};
        MOV     DPTR,#`?<Constant {0}>_5`
        PUSH    DPL
        CFI CFA_SP SP+-1
        PUSH    DPH
        CFI CFA_SP SP+-2
        MOV     DPL,?XSP + 0
        MOV     DPH,?XSP + 1
        MOV     R4,DPL
        MOV     R5,DPH
        POP     DPH
        CFI CFA_SP SP+-1
        POP     DPL
        CFI CFA_SP SP+0
        MOV     A,#0x64
        LCALL   ?MOVE_LONG8_XDATA_XDATA
//  756   uint8* p_buff = NULL;
        MOV     R6,#0x0
        MOV     R7,#0x0
//  757   memcpy(buff,topic,strlen(topic)+1);
        ; Setup parameters for call to function memcpy
        ; Setup parameters for call to function strlen
        MOV     R2,?V0 + 2
        MOV     R3,?V0 + 3
        LCALL   ??strlen?relay
        MOV     ?V0 + 4,R2
        MOV     ?V0 + 5,R3
        MOV     A,?V0 + 4
        ADD     A,#0x1
        MOV     ?V0 + 4,A
        MOV     A,?V0 + 5
        ADDC    A,#0x0
        MOV     ?V0 + 5,A
        MOV     R0,#?V0 + 4
        LCALL   ?PUSH_XSTACK_I_TWO
        CFI CFA_XSP16 add(XSP16, 316)
        MOV     R4,?V0 + 2
        MOV     R5,?V0 + 3
        MOV     A,#-0x36
        LCALL   ?XSTACK_DISP0_8
        MOV     R2,DPL
        MOV     R3,DPH
        LCALL   ??memcpy?relay
        MOV     A,#0x2
        LCALL   ?DEALLOC_XSTACK8
        CFI CFA_XSP16 add(XSP16, 314)
//  758   p_buff = strrchr(buff,'/')+1;
        ; Setup parameters for call to function strrchr
        MOV     R4,#0x2f
        MOV     R5,#0x0
        MOV     A,#-0x38
        LCALL   ?XSTACK_DISP0_8
        MOV     R2,DPL
        MOV     R3,DPH
        LCALL   ??strrchr?relay
        MOV     DPL,R2
        MOV     DPH,R3
        INC     DPTR
        MOV     R6,DPL
        MOV     R7,DPH
//  759   memcpy(method,p_buff,strlen(p_buff)+1);
        ; Setup parameters for call to function memcpy
        ; Setup parameters for call to function strlen
        MOV     A,R6
        MOV     R2,A
        MOV     A,R7
        MOV     R3,A
        LCALL   ??strlen?relay
        MOV     ?V0 + 4,R2
        MOV     ?V0 + 5,R3
        MOV     A,?V0 + 4
        ADD     A,#0x1
        MOV     ?V0 + 4,A
        MOV     A,?V0 + 5
        ADDC    A,#0x0
        MOV     ?V0 + 5,A
        MOV     R0,#?V0 + 4
        LCALL   ?PUSH_XSTACK_I_TWO
        CFI CFA_XSP16 add(XSP16, 316)
        MOV     A,R6
        MOV     R4,A
        MOV     A,R7
        MOV     R5,A
        MOV     A,#0x66
        LCALL   ?XSTACK_DISP0_8
        MOV     R2,DPL
        MOV     R3,DPH
        LCALL   ??memcpy?relay
        MOV     A,#0x2
        LCALL   ?DEALLOC_XSTACK8
        CFI CFA_XSP16 add(XSP16, 314)
//  760   
//  761   
//  762   if(0==strcmp(method,"receive"))
        ; Setup parameters for call to function strcmp
        MOV     R4,#`?<Constant "receive">` & 0xff
        MOV     R5,#(`?<Constant "receive">` >> 8) & 0xff
        MOV     A,#0x64
        LCALL   ?XSTACK_DISP0_8
        MOV     R2,DPL
        MOV     R3,DPH
        LCALL   ??strcmp?relay
        MOV     ?V0 + 4,R2
        MOV     ?V0 + 5,R3
        MOV     A,?V0 + 4
        ORL     A,?V0 + 5
        JNZ     ??mqtt_rx_2
//  763   {
//  764     //          memcpy(MqttRecMsg,cmd,strlen(cmd));  
//  765     //          osal_start_timerEx( SampleApp_TaskID, SAMPLEAPP_COOR_CHECK_MQTT_EVT,1000);
//  766     //          //不知道啥原因，一旦发送消息触发SAMPLEAPP_COOR_CHECK_MQTT_EVT事件，似乎协调器就会死机无法继续发送消息至终端，按键事件也无法发送
//  767     //          HalLcdWriteString((char*)MqttRecMsg, HAL_LCD_LINE_3);
//  768     if(MqttRecMsg[0]=='\0')
        MOV     DPTR,#MqttRecMsg
        MOVX    A,@DPTR
        JNZ     ??mqtt_rx_3
//  769     {
//  770       memcpy(MqttRecMsg,cmd,strlen(cmd));  
        ; Setup parameters for call to function memcpy
        ; Setup parameters for call to function strlen
        MOV     R2,?V0 + 0
        MOV     R3,?V0 + 1
        LCALL   ??strlen?relay
        MOV     ?V0 + 4,R2
        MOV     ?V0 + 5,R3
        MOV     R0,#?V0 + 4
        LCALL   ?PUSH_XSTACK_I_TWO
        CFI CFA_XSP16 add(XSP16, 316)
        MOV     R4,?V0 + 0
        MOV     R5,?V0 + 1
        MOV     R2,#MqttRecMsg & 0xff
        MOV     R3,#(MqttRecMsg >> 8) & 0xff
        LCALL   ??memcpy?relay
        MOV     A,#0x2
        LCALL   ?DEALLOC_XSTACK8
        CFI CFA_XSP16 add(XSP16, 314)
//  771       osal_start_timerEx( SampleApp_TaskID, SAMPLEAPP_COOR_CHECK_MQTT_EVT,10 );
        ; Setup parameters for call to function osal_start_timerEx
        MOV     R4,#0xa
        MOV     R5,#0x0
        MOV     R2,#0x20
        MOV     R3,#0x0
        MOV     DPTR,#SampleApp_TaskID
        MOVX    A,@DPTR
        MOV     R1,A
        LCALL   ??osal_start_timerEx?relay
        MOV     A,R1
//  772       HalLcdWriteString((char*)MqttRecMsg, HAL_LCD_LINE_3);
        ; Setup parameters for call to function HalLcdWriteString
        MOV     R1,#0x3
        MOV     R2,#MqttRecMsg & 0xff
        MOV     R3,#(MqttRecMsg >> 8) & 0xff
        LCALL   ??HalLcdWriteString?relay
        SJMP    ??mqtt_rx_2
//  773     }
//  774     else{
//  775       //osal_start_timerEx( SampleApp_TaskID, SAMPLEAPP_COOR_CHECK_MQTT_EVT,5 );
//  776       Response2mqtt("too many msg, hold on");
??mqtt_rx_3:
        ; Setup parameters for call to function Response2mqtt
        MOV     R2,#`?<Constant "too many msg, hold on">` & 0xff
        MOV     R3,#(`?<Constant "too many msg, hold on">` >> 8) & 0xff
        LCALL   ??Response2mqtt?relay
//  777       HalLcdWriteString("too many msg", HAL_LCD_LINE_4);
        ; Setup parameters for call to function HalLcdWriteString
        MOV     R1,#0x4
        MOV     R2,#`?<Constant "too many msg">` & 0xff
        MOV     R3,#(`?<Constant "too many msg">` >> 8) & 0xff
        LCALL   ??HalLcdWriteString?relay
//  778     }
//  779   }
//  780   
//  781   
//  782   //HalLcdWriteString((char*)topic, HAL_LCD_LINE_1); //LCD显示
//  783   //HalLcdWriteString((char*)msg, HAL_LCD_LINE_2); //LCD显示
//  784   
//  785 }
??mqtt_rx_2:
        MOV     B.0,C
        MOV     DPL,#0x2c
        MOV     DPH,#0x1
        LCALL   ?ADD_XSTACK_DISP0_16
        CFI CFA_XSP16 add(XSP16, 14)
        MOV     C,B.0
        MOV     R7,#0x6
        LJMP    ?BANKED_LEAVE_XDATA
        CFI EndBlock cfiBlock5
//  786 
//  787 

        RSEG BANKED_CODE:CODE:NOROOT(0)
//  788 void Response2mqtt(uint8* returnMsg)
Response2mqtt:
        CFI Block cfiBlock6 Using cfiCommon0
        CFI Function Response2mqtt
        CODE
//  789 {
        FUNCALL Response2mqtt, sprintf
        LOCFRAME ISTACK, 0, STACK
        LOCFRAME PSTACK, 0, STACK
        LOCFRAME XSTACK, 12, STACK
        LOCFRAME IOVERLAY, 0, STATIC
        LOCFRAME DOVERLAY, 0, STATIC
        ARGFRAME ISTACK, 0, STACK
        ARGFRAME PSTACK, 0, STACK
        ARGFRAME XSTACK, 12, STACK
        ARGFRAME IOVERLAY, 0, STATIC
        ARGFRAME DOVERLAY, 0, STATIC
        FUNCALL Response2mqtt, mqtt_publish_topic
        LOCFRAME ISTACK, 0, STACK
        LOCFRAME PSTACK, 0, STACK
        LOCFRAME XSTACK, 10, STACK
        LOCFRAME IOVERLAY, 0, STATIC
        LOCFRAME DOVERLAY, 0, STATIC
        ARGFRAME ISTACK, 0, STACK
        ARGFRAME PSTACK, 0, STACK
        ARGFRAME XSTACK, 10, STACK
        ARGFRAME IOVERLAY, 0, STATIC
        ARGFRAME DOVERLAY, 0, STATIC
        MOV     A,#-0xa
        LCALL   ?BANKED_ENTER_XDATA
        CFI DPH0 load(1, XDATA, add(CFA_XSP16, literal(-1)))
        CFI DPL0 load(1, XDATA, add(CFA_XSP16, literal(-2)))
        CFI ?BRET_EXT load(1, XDATA, add(CFA_XSP16, literal(-3)))
        CFI ?RET_HIGH load(1, XDATA, add(CFA_XSP16, literal(-4)))
        CFI ?RET_LOW load(1, XDATA, add(CFA_XSP16, literal(-5)))
        CFI R7 load(1, XDATA, add(CFA_XSP16, literal(-6)))
        CFI V1 load(1, XDATA, add(CFA_XSP16, literal(-7)))
        CFI V0 load(1, XDATA, add(CFA_XSP16, literal(-8)))
        CFI VB load(1, XDATA, add(CFA_XSP16, literal(-9)))
        CFI R6 load(1, XDATA, add(CFA_XSP16, literal(-10)))
        CFI CFA_SP SP+0
        CFI CFA_XSP16 add(XSP16, 10)
        ; Saved register size: 10
        ; Auto size: 0
        MOV     ?V0 + 0,R2
        MOV     ?V0 + 1,R3
//  790   sprintf(mqtt_message,"{\"msg\":\"%s\",\"flow\":201}",returnMsg);  
        ; Setup parameters for call to function sprintf
        MOV     R0,#?V0 + 0
        LCALL   ?PUSH_XSTACK_I_TWO
        CFI CFA_XSP16 add(XSP16, 12)
        MOV     R4,#`?<Constant "{\\"msg\\":\\"%s\\",\\"flow\\":201}">` & 0xff
        MOV     R5,#(`?<Constant "{\\"msg\\":\\"%s\\",\\"flow\\":201}">` >> 8) & 0xff
        MOV     R2,#mqtt_message & 0xff
        MOV     R3,#(mqtt_message >> 8) & 0xff
        LCALL   ??sprintf?relay
        MOV     A,#0x2
        LCALL   ?DEALLOC_XSTACK8
        CFI CFA_XSP16 add(XSP16, 10)
//  791   
//  792   //发布主题
//  793   mqtt_publish_topic(topics_post, mqtt_message);
        ; Setup parameters for call to function mqtt_publish_topic
        MOV     R4,#mqtt_message & 0xff
        MOV     R5,#(mqtt_message >> 8) & 0xff
        MOV     R2,#topics_post & 0xff
        MOV     R3,#(topics_post >> 8) & 0xff
        LCALL   ??mqtt_publish_topic?relay
//  794   
//  795 }
        MOV     R7,#0x2
        LJMP    ?BANKED_LEAVE_XDATA
        CFI EndBlock cfiBlock6
//  796 

        RSEG BANKED_CODE:CODE:NOROOT(0)
//  797 bool OneNet_publish_topic(const char *topic, const char *msg)
OneNet_publish_topic:
        CFI Block cfiBlock7 Using cfiCommon0
        CFI Function OneNet_publish_topic
        CODE
//  798 { 
        FUNCALL OneNet_publish_topic, mqtt_publish_topic
        LOCFRAME ISTACK, 0, STACK
        LOCFRAME PSTACK, 0, STACK
        LOCFRAME XSTACK, 10, STACK
        LOCFRAME IOVERLAY, 0, STATIC
        LOCFRAME DOVERLAY, 0, STATIC
        ARGFRAME ISTACK, 0, STACK
        ARGFRAME PSTACK, 0, STACK
        ARGFRAME XSTACK, 10, STACK
        ARGFRAME IOVERLAY, 0, STATIC
        ARGFRAME DOVERLAY, 0, STATIC
        MOV     A,#-0xa
        LCALL   ?BANKED_ENTER_XDATA
        CFI DPH0 load(1, XDATA, add(CFA_XSP16, literal(-1)))
        CFI DPL0 load(1, XDATA, add(CFA_XSP16, literal(-2)))
        CFI ?BRET_EXT load(1, XDATA, add(CFA_XSP16, literal(-3)))
        CFI ?RET_HIGH load(1, XDATA, add(CFA_XSP16, literal(-4)))
        CFI ?RET_LOW load(1, XDATA, add(CFA_XSP16, literal(-5)))
        CFI R7 load(1, XDATA, add(CFA_XSP16, literal(-6)))
        CFI V1 load(1, XDATA, add(CFA_XSP16, literal(-7)))
        CFI V0 load(1, XDATA, add(CFA_XSP16, literal(-8)))
        CFI VB load(1, XDATA, add(CFA_XSP16, literal(-9)))
        CFI R6 load(1, XDATA, add(CFA_XSP16, literal(-10)))
        CFI CFA_SP SP+0
        CFI CFA_XSP16 add(XSP16, 10)
        ; Saved register size: 10
        ; Auto size: 0
        MOV     ?V0 + 0,R2
        MOV     ?V0 + 1,R3
        MOV     A,R4
        MOV     R6,A
        MOV     A,R5
        MOV     R7,A
//  799   //uint8 buff[100]={0};
//  800   
//  801   //sprintf(buff, "topic:%s,msg:%s", topic, msg);
//  802   
//  803   /*  发布主题为"hello_topic_public"，消息为温度和湿度 */
//  804   return mqtt_publish_topic(topic, msg);
        ; Setup parameters for call to function mqtt_publish_topic
        MOV     A,R6
        MOV     R4,A
        MOV     A,R7
        MOV     R5,A
        MOV     R2,?V0 + 0
        MOV     R3,?V0 + 1
        LCALL   ??mqtt_publish_topic?relay
        CLR     A
        RLC     A
        MOV     R1,A
        MOV     R7,#0x2
        LJMP    ?BANKED_LEAVE_XDATA
        CFI EndBlock cfiBlock7
//  805 }
//  806 
//  807 
//  808 
//  809 /*********************************************************************
//  810 * @fn      SampleApp_CallBack
//  811 *
//  812 * @brief   Send data OTA.
//  813 *
//  814 * @param   port - UART port.
//  815 * @param   event - the UART port event flag.
//  816 *
//  817 * @return  none
//  818 */

        RSEG XDATA_Z:XDATA:NOROOT(0)
        DATA32
//  819 uint32 lastReadMs=0;
lastReadMs:
        DS 4
        REQUIRE __INIT_XDATA_Z

        RSEG BANKED_CODE:CODE:NOROOT(0)
//  820 void SampleApp_CallBack(uint8 port, uint8 event)
SampleApp_CallBack:
        CFI Block cfiBlock8 Using cfiCommon0
        CFI Function SampleApp_CallBack
        CODE
//  821 {
        FUNCALL SampleApp_CallBack, HalUARTRead
        LOCFRAME ISTACK, 0, STACK
        LOCFRAME PSTACK, 0, STACK
        LOCFRAME XSTACK, 16, STACK
        LOCFRAME IOVERLAY, 0, STATIC
        LOCFRAME DOVERLAY, 0, STATIC
        ARGFRAME ISTACK, 0, STACK
        ARGFRAME PSTACK, 0, STACK
        ARGFRAME XSTACK, 16, STACK
        ARGFRAME IOVERLAY, 0, STATIC
        ARGFRAME DOVERLAY, 0, STATIC
        FUNCALL SampleApp_CallBack, osal_memset
        LOCFRAME ISTACK, 0, STACK
        LOCFRAME PSTACK, 0, STACK
        LOCFRAME XSTACK, 16, STACK
        LOCFRAME IOVERLAY, 0, STATIC
        LOCFRAME DOVERLAY, 0, STATIC
        ARGFRAME ISTACK, 0, STACK
        ARGFRAME PSTACK, 0, STACK
        ARGFRAME XSTACK, 16, STACK
        ARGFRAME IOVERLAY, 0, STATIC
        ARGFRAME DOVERLAY, 0, STATIC
        FUNCALL SampleApp_CallBack, HalUARTRead
        LOCFRAME ISTACK, 0, STACK
        LOCFRAME PSTACK, 0, STACK
        LOCFRAME XSTACK, 16, STACK
        LOCFRAME IOVERLAY, 0, STATIC
        LOCFRAME DOVERLAY, 0, STATIC
        ARGFRAME ISTACK, 0, STACK
        ARGFRAME PSTACK, 0, STACK
        ARGFRAME XSTACK, 16, STACK
        ARGFRAME IOVERLAY, 0, STATIC
        ARGFRAME DOVERLAY, 0, STATIC
        FUNCALL SampleApp_CallBack, debug
        LOCFRAME ISTACK, 0, STACK
        LOCFRAME PSTACK, 0, STACK
        LOCFRAME XSTACK, 26, STACK
        LOCFRAME IOVERLAY, 0, STATIC
        LOCFRAME DOVERLAY, 0, STATIC
        ARGFRAME ISTACK, 0, STACK
        ARGFRAME PSTACK, 0, STACK
        ARGFRAME XSTACK, 26, STACK
        ARGFRAME IOVERLAY, 0, STATIC
        ARGFRAME DOVERLAY, 0, STATIC
        FUNCALL SampleApp_CallBack, MQTT_UnPacketRecv
        LOCFRAME ISTACK, 0, STACK
        LOCFRAME PSTACK, 0, STACK
        LOCFRAME XSTACK, 16, STACK
        LOCFRAME IOVERLAY, 0, STATIC
        LOCFRAME DOVERLAY, 0, STATIC
        ARGFRAME ISTACK, 0, STACK
        ARGFRAME PSTACK, 0, STACK
        ARGFRAME XSTACK, 16, STACK
        ARGFRAME IOVERLAY, 0, STATIC
        ARGFRAME DOVERLAY, 0, STATIC
        FUNCALL SampleApp_CallBack, MQTT_UnPacketConnectAck
        LOCFRAME ISTACK, 0, STACK
        LOCFRAME PSTACK, 0, STACK
        LOCFRAME XSTACK, 16, STACK
        LOCFRAME IOVERLAY, 0, STATIC
        LOCFRAME DOVERLAY, 0, STATIC
        ARGFRAME ISTACK, 0, STACK
        ARGFRAME PSTACK, 0, STACK
        ARGFRAME XSTACK, 16, STACK
        ARGFRAME IOVERLAY, 0, STATIC
        ARGFRAME DOVERLAY, 0, STATIC
        FUNCALL SampleApp_CallBack, mqtt_subscribe_topic
        LOCFRAME ISTACK, 0, STACK
        LOCFRAME PSTACK, 0, STACK
        LOCFRAME XSTACK, 16, STACK
        LOCFRAME IOVERLAY, 0, STATIC
        LOCFRAME DOVERLAY, 0, STATIC
        ARGFRAME ISTACK, 0, STACK
        ARGFRAME PSTACK, 0, STACK
        ARGFRAME XSTACK, 16, STACK
        ARGFRAME IOVERLAY, 0, STATIC
        ARGFRAME DOVERLAY, 0, STATIC
        FUNCALL SampleApp_CallBack, osal_GetSystemClock
        LOCFRAME ISTACK, 0, STACK
        LOCFRAME PSTACK, 0, STACK
        LOCFRAME XSTACK, 16, STACK
        LOCFRAME IOVERLAY, 0, STATIC
        LOCFRAME DOVERLAY, 0, STATIC
        ARGFRAME ISTACK, 0, STACK
        ARGFRAME PSTACK, 0, STACK
        ARGFRAME XSTACK, 16, STACK
        ARGFRAME IOVERLAY, 0, STATIC
        ARGFRAME DOVERLAY, 0, STATIC
        FUNCALL SampleApp_CallBack, osal_memset
        LOCFRAME ISTACK, 0, STACK
        LOCFRAME PSTACK, 0, STACK
        LOCFRAME XSTACK, 16, STACK
        LOCFRAME IOVERLAY, 0, STATIC
        LOCFRAME DOVERLAY, 0, STATIC
        ARGFRAME ISTACK, 0, STACK
        ARGFRAME PSTACK, 0, STACK
        ARGFRAME XSTACK, 16, STACK
        ARGFRAME IOVERLAY, 0, STATIC
        ARGFRAME DOVERLAY, 0, STATIC
        FUNCALL SampleApp_CallBack, HalUARTRead
        LOCFRAME ISTACK, 0, STACK
        LOCFRAME PSTACK, 0, STACK
        LOCFRAME XSTACK, 16, STACK
        LOCFRAME IOVERLAY, 0, STATIC
        LOCFRAME DOVERLAY, 0, STATIC
        ARGFRAME ISTACK, 0, STACK
        ARGFRAME PSTACK, 0, STACK
        ARGFRAME XSTACK, 16, STACK
        ARGFRAME IOVERLAY, 0, STATIC
        ARGFRAME DOVERLAY, 0, STATIC
        FUNCALL SampleApp_CallBack, debug
        LOCFRAME ISTACK, 0, STACK
        LOCFRAME PSTACK, 0, STACK
        LOCFRAME XSTACK, 18, STACK
        LOCFRAME IOVERLAY, 0, STATIC
        LOCFRAME DOVERLAY, 0, STATIC
        ARGFRAME ISTACK, 0, STACK
        ARGFRAME PSTACK, 0, STACK
        ARGFRAME XSTACK, 18, STACK
        ARGFRAME IOVERLAY, 0, STATIC
        ARGFRAME DOVERLAY, 0, STATIC
        FUNCALL SampleApp_CallBack, OneNet_RevPro
        LOCFRAME ISTACK, 0, STACK
        LOCFRAME PSTACK, 0, STACK
        LOCFRAME XSTACK, 16, STACK
        LOCFRAME IOVERLAY, 0, STATIC
        LOCFRAME DOVERLAY, 0, STATIC
        ARGFRAME ISTACK, 0, STACK
        ARGFRAME PSTACK, 0, STACK
        ARGFRAME XSTACK, 16, STACK
        ARGFRAME IOVERLAY, 0, STATIC
        ARGFRAME DOVERLAY, 0, STATIC
        FUNCALL SampleApp_CallBack, osal_memset
        LOCFRAME ISTACK, 0, STACK
        LOCFRAME PSTACK, 0, STACK
        LOCFRAME XSTACK, 16, STACK
        LOCFRAME IOVERLAY, 0, STATIC
        LOCFRAME DOVERLAY, 0, STATIC
        ARGFRAME ISTACK, 0, STACK
        ARGFRAME PSTACK, 0, STACK
        ARGFRAME XSTACK, 16, STACK
        ARGFRAME IOVERLAY, 0, STATIC
        ARGFRAME DOVERLAY, 0, STATIC
        MOV     A,#-0x10
        LCALL   ?BANKED_ENTER_XDATA
        CFI DPH0 load(1, XDATA, add(CFA_XSP16, literal(-1)))
        CFI DPL0 load(1, XDATA, add(CFA_XSP16, literal(-2)))
        CFI ?BRET_EXT load(1, XDATA, add(CFA_XSP16, literal(-3)))
        CFI ?RET_HIGH load(1, XDATA, add(CFA_XSP16, literal(-4)))
        CFI ?RET_LOW load(1, XDATA, add(CFA_XSP16, literal(-5)))
        CFI R7 load(1, XDATA, add(CFA_XSP16, literal(-6)))
        CFI V7 load(1, XDATA, add(CFA_XSP16, literal(-7)))
        CFI V6 load(1, XDATA, add(CFA_XSP16, literal(-8)))
        CFI V5 load(1, XDATA, add(CFA_XSP16, literal(-9)))
        CFI V4 load(1, XDATA, add(CFA_XSP16, literal(-10)))
        CFI V3 load(1, XDATA, add(CFA_XSP16, literal(-11)))
        CFI V2 load(1, XDATA, add(CFA_XSP16, literal(-12)))
        CFI V1 load(1, XDATA, add(CFA_XSP16, literal(-13)))
        CFI V0 load(1, XDATA, add(CFA_XSP16, literal(-14)))
        CFI VB load(1, XDATA, add(CFA_XSP16, literal(-15)))
        CFI R6 load(1, XDATA, add(CFA_XSP16, literal(-16)))
        CFI CFA_SP SP+0
        CFI CFA_XSP16 add(XSP16, 16)
        ; Saved register size: 16
        ; Auto size: 0
        MOV     A,R1
        MOV     R7,A
        MOV     A,R2
        MOV     R6,A
//  822   (void)port;
//  823   
//  824   if(0==onenet_login_ok)
        MOV     DPTR,#onenet_login_ok
        MOVX    A,@DPTR
        JNZ     ??SampleApp_CallBack_0
//  825   {
//  826     HalUARTRead(SAMPLE_APP_PORT, SampleApp_RxBuf, SAMPLE_APP_RX_MAX);
        ; Setup parameters for call to function HalUARTRead
        MOV     R4,#0x2c
        MOV     R5,#0x1
        MOV     R2,#SampleApp_RxBuf & 0xff
        MOV     R3,#(SampleApp_RxBuf >> 8) & 0xff
        MOV     R1,#0x0
        LCALL   ??HalUARTRead?relay
//  827     SampleApp_RxLen=0;
        MOV     DPTR,#SampleApp_RxLen
        MOV     A,#0x0
        MOVX    @DPTR,A
        INC     DPTR
        MOV     A,#0x0
        MOVX    @DPTR,A
//  828     osal_memset(SampleApp_RxBuf, 0, SAMPLE_APP_RX_MAX);
        ; Setup parameters for call to function osal_memset
        MOV     R4,#0x2c
        MOV     R5,#0x1
        MOV     R1,#0x0
        MOV     R2,#SampleApp_RxBuf & 0xff
        MOV     R3,#(SampleApp_RxBuf >> 8) & 0xff
        LCALL   ??osal_memset?relay
        LJMP    ??SampleApp_CallBack_1 & 0xFFFF
//  829   }
//  830   else if(1==onenet_login_ok)//onenet注册成功 0:未注册，1：注册中　2：注册成功
??SampleApp_CallBack_0:
        MOV     DPTR,#onenet_login_ok
        MOVX    A,@DPTR
        XRL     A,#0x1
        JZ      $+5
        LJMP    ??SampleApp_CallBack_2 & 0xFFFF
//  831   {
//  832     //一个一个字节读
//  833     SampleApp_RxLen += HalUARTRead(SAMPLE_APP_PORT, SampleApp_RxBuf+SampleApp_RxLen, 4);
        ; Setup parameters for call to function HalUARTRead
        MOV     R4,#0x4
        MOV     R5,#0x0
        MOV     DPTR,#SampleApp_RxLen
        MOVX    A,@DPTR
        ADD     A,#SampleApp_RxBuf & 0xff
        MOV     R2,A
        INC     DPTR
        MOVX    A,@DPTR
        ADDC    A,#(SampleApp_RxBuf >> 8) & 0xff
        MOV     R3,A
        MOV     R1,#0x0
        LCALL   ??HalUARTRead?relay
        MOV     ?V0 + 0,R2
        MOV     ?V0 + 1,R3
        MOV     R0,?V0 + 0
        MOV     R1,?V0 + 1
        MOV     DPTR,#SampleApp_RxLen
        MOVX    A,@DPTR
        ADD     A,R0
        MOVX    @DPTR,A
        INC     DPTR
        MOVX    A,@DPTR
        ADDC    A,R1
        MOVX    @DPTR,A
//  834     
//  835     //判断是否是注册成功
//  836     if(SampleApp_RxLen>=4)
        MOV     DPTR,#SampleApp_RxLen
        CLR     C
        MOVX    A,@DPTR
        SUBB    A,#0x4
        INC     DPTR
        MOVX    A,@DPTR
        SUBB    A,#0x0
        JC      ??SampleApp_CallBack_3
//  837     {
//  838       debug("rx len=%d(%x,%x,%x,%x)\r\n", SampleApp_RxLen,SampleApp_RxBuf[0],SampleApp_RxBuf[1],SampleApp_RxBuf[2],SampleApp_RxBuf[3]);
        ; Setup parameters for call to function debug
        MOV     DPTR,#SampleApp_RxBuf + 3
        MOVX    A,@DPTR
        MOV     ?V0 + 0,A
        MOV     ?V0 + 1,#0x0
        MOV     R0,#?V0 + 0
        LCALL   ?PUSH_XSTACK_I_TWO
        CFI CFA_XSP16 add(XSP16, 18)
        MOV     DPTR,#SampleApp_RxBuf + 2
        MOVX    A,@DPTR
        MOV     ?V0 + 0,A
        MOV     ?V0 + 1,#0x0
        MOV     R0,#?V0 + 0
        LCALL   ?PUSH_XSTACK_I_TWO
        CFI CFA_XSP16 add(XSP16, 20)
        MOV     DPTR,#SampleApp_RxBuf + 1
        MOVX    A,@DPTR
        MOV     ?V0 + 0,A
        MOV     ?V0 + 1,#0x0
        MOV     R0,#?V0 + 0
        LCALL   ?PUSH_XSTACK_I_TWO
        CFI CFA_XSP16 add(XSP16, 22)
        MOV     DPTR,#SampleApp_RxBuf
        MOVX    A,@DPTR
        MOV     ?V0 + 0,A
        MOV     ?V0 + 1,#0x0
        MOV     R0,#?V0 + 0
        LCALL   ?PUSH_XSTACK_I_TWO
        CFI CFA_XSP16 add(XSP16, 24)
        MOV     DPTR,#SampleApp_RxLen
        LCALL   ?PUSH_XSTACK8_X_TWO
        CFI CFA_XSP16 add(XSP16, 26)
        MOV     R2,#`?<Constant "rx len=%d(%x,%x,%x,%x)\\r\\n">` & 0xff
        MOV     R3,#(`?<Constant "rx len=%d(%x,%x,%x,%x)\\r\\n">` >> 8) & 0xff
        LCALL   ??debug?relay
        MOV     A,#0xa
        LCALL   ?DEALLOC_XSTACK8
        CFI CFA_XSP16 add(XSP16, 16)
//  839       
//  840       //等待接入响应
//  841       if(MQTT_UnPacketRecv(SampleApp_RxBuf) == MQTT_PKT_CONNACK)
        ; Setup parameters for call to function MQTT_UnPacketRecv
        MOV     R2,#SampleApp_RxBuf & 0xff
        MOV     R3,#(SampleApp_RxBuf >> 8) & 0xff
        LCALL   ??MQTT_UnPacketRecv?relay
        MOV     A,R1
        XRL     A,#0x2
        JNZ     ??SampleApp_CallBack_3
//  842       {
//  843         if(0==MQTT_UnPacketConnectAck(SampleApp_RxBuf))
        ; Setup parameters for call to function MQTT_UnPacketConnectAck
        MOV     R2,#SampleApp_RxBuf & 0xff
        MOV     R3,#(SampleApp_RxBuf >> 8) & 0xff
        LCALL   ??MQTT_UnPacketConnectAck?relay
        MOV     A,R1
        JNZ     ??SampleApp_CallBack_3
//  844         {
//  845           onenet_login_ok=2;//注册成功
        MOV     DPTR,#onenet_login_ok
        MOV     A,#0x2
        MOVX    @DPTR,A
//  846           SampleApp_RxLen=0;
        MOV     DPTR,#SampleApp_RxLen
        MOV     A,#0x0
        MOVX    @DPTR,A
        INC     DPTR
        MOV     A,#0x0
        MOVX    @DPTR,A
//  847           
//  848           //请求订阅主题
//  849           mqtt_subscribe_topic(g_mqtt_topics_set, 1);
        ; Setup parameters for call to function mqtt_subscribe_topic
        MOV     R1,#0x1
        MOV     R2,#g_mqtt_topics_set & 0xff
        MOV     R3,#(g_mqtt_topics_set >> 8) & 0xff
        LCALL   ??mqtt_subscribe_topic?relay
//  850         }
//  851       }
//  852     }
//  853     
//  854     //数组满，清0
//  855     if(SampleApp_RxLen>=SAMPLE_APP_RX_MAX)
??SampleApp_CallBack_3:
        MOV     DPTR,#SampleApp_RxLen
        CLR     C
        MOVX    A,@DPTR
        SUBB    A,#0x2c
        INC     DPTR
        MOVX    A,@DPTR
        SUBB    A,#0x1
        JNC     $+5
        LJMP    ??SampleApp_CallBack_1 & 0xFFFF
//  856     {
//  857       SampleApp_RxLen=0;
        MOV     DPTR,#SampleApp_RxLen
        MOV     A,#0x0
        MOVX    @DPTR,A
        INC     DPTR
        MOV     A,#0x0
        MOVX    @DPTR,A
        LJMP    ??SampleApp_CallBack_1 & 0xFFFF
//  858     }
//  859   }
//  860   else if(2==onenet_login_ok)
??SampleApp_CallBack_2:
        MOV     DPTR,#onenet_login_ok
        MOVX    A,@DPTR
        XRL     A,#0x2
        JZ      $+5
        LJMP    ??SampleApp_CallBack_1 & 0xFFFF
//  861   {
//  862     //如果是注册成功，读服务器的控制命令
//  863     
//  864     uint32 curMs=osal_GetSystemClock();
        ; Setup parameters for call to function osal_GetSystemClock
        LCALL   ??osal_GetSystemClock?relay
        MOV     ?V0 + 4,R2
        MOV     ?V0 + 5,R3
        MOV     ?V0 + 6,R4
        MOV     ?V0 + 7,R5
//  865     
//  866     if((curMs-lastReadMs)<1000) return;
        MOV     ?V0 + 0,?V0 + 4
        MOV     ?V0 + 1,?V0 + 5
        MOV     ?V0 + 2,?V0 + 6
        MOV     ?V0 + 3,?V0 + 7
        MOV     DPTR,#lastReadMs
        MOV     R0,#?V0 + 0
        LCALL   ?L_SUB_X
        MOV     DPTR,#__Constant_3e8
        MOV     R0,#?V0 + 0
        LCALL   ?UL_GE_X
        JNC     ??SampleApp_CallBack_1
//  867     
//  868     lastReadMs=curMs;
        MOV     DPTR,#lastReadMs
        MOV     R0,#?V0 + 4
        LCALL   ?L_MOV_TO_X
//  869     SampleApp_RxLen=0;
        MOV     DPTR,#SampleApp_RxLen
        MOV     A,#0x0
        MOVX    @DPTR,A
        INC     DPTR
        MOV     A,#0x0
        MOVX    @DPTR,A
//  870     osal_memset(SampleApp_RxBuf, 0, SAMPLE_APP_RX_MAX+1);
        ; Setup parameters for call to function osal_memset
        MOV     R4,#0x2d
        MOV     R5,#0x1
        MOV     R1,#0x0
        MOV     R2,#SampleApp_RxBuf & 0xff
        MOV     R3,#(SampleApp_RxBuf >> 8) & 0xff
        LCALL   ??osal_memset?relay
//  871     SampleApp_RxLen = HalUARTRead(SAMPLE_APP_PORT, SampleApp_RxBuf, SAMPLE_APP_RX_MAX);
        ; Setup parameters for call to function HalUARTRead
        MOV     R4,#0x2c
        MOV     R5,#0x1
        MOV     R2,#SampleApp_RxBuf & 0xff
        MOV     R3,#(SampleApp_RxBuf >> 8) & 0xff
        MOV     R1,#0x0
        LCALL   ??HalUARTRead?relay
        MOV     DPTR,#SampleApp_RxLen
        MOV     A,R2
        MOVX    @DPTR,A
        INC     DPTR
        MOV     A,R3
        MOVX    @DPTR,A
//  872     
//  873     
//  874     
//  875     if(SampleApp_RxLen>0)
        MOV     DPTR,#SampleApp_RxLen
        MOVX    A,@DPTR
        MOV     R0,A
        INC     DPTR
        MOVX    A,@DPTR
        MOV     R1,A
        MOV     A,R0
        ORL     A,R1
        JZ      ??SampleApp_CallBack_1
//  876     {
//  877       debug("rx len=%d.\r\n", SampleApp_RxLen);
        ; Setup parameters for call to function debug
        MOV     DPTR,#SampleApp_RxLen
        LCALL   ?PUSH_XSTACK8_X_TWO
        CFI CFA_XSP16 add(XSP16, 18)
        MOV     R2,#`?<Constant "rx len=%d.\\r\\n">` & 0xff
        MOV     R3,#(`?<Constant "rx len=%d.\\r\\n">` >> 8) & 0xff
        LCALL   ??debug?relay
        MOV     A,#0x2
        LCALL   ?DEALLOC_XSTACK8
        CFI CFA_XSP16 add(XSP16, 16)
//  878       
//  879       OneNet_RevPro(SampleApp_RxBuf);// /sys/a1VZAPhhRWF/zigbee-coor/thing/service/property/set {"method":...}
        ; Setup parameters for call to function OneNet_RevPro
        MOV     R2,#SampleApp_RxBuf & 0xff
        MOV     R3,#(SampleApp_RxBuf >> 8) & 0xff
        LCALL   ??OneNet_RevPro?relay
//  880       SampleApp_RxLen=0;
        MOV     DPTR,#SampleApp_RxLen
        MOV     A,#0x0
        MOVX    @DPTR,A
        INC     DPTR
        MOV     A,#0x0
        MOVX    @DPTR,A
//  881       osal_memset(SampleApp_RxBuf, 0, SAMPLE_APP_RX_MAX+1);
        ; Setup parameters for call to function osal_memset
        MOV     R4,#0x2d
        MOV     R5,#0x1
        MOV     R1,#0x0
        MOV     R2,#SampleApp_RxBuf & 0xff
        MOV     R3,#(SampleApp_RxBuf >> 8) & 0xff
        LCALL   ??osal_memset?relay
//  882     }
//  883   }
//  884   
//  885 }
??SampleApp_CallBack_1:
        MOV     R7,#0x8
        LJMP    ?BANKED_LEAVE_XDATA
        CFI EndBlock cfiBlock8
//  886 
//  887 #else
//  888 
//  889 /*********************************************************************
//  890 * @fn      SampleApp_Send_P2P_Message
//  891 *
//  892 * @brief   point to point.
//  893 *
//  894 * @param   none
//  895 *
//  896 * @return  none
//  897 */
//  898 void SampleApp_Send_P2P_Message( void )
//  899 {
//  900   uint8 str[5]={0};
//  901   uint8 strTemp[20]={0};
//  902   int len=0;
//  903   
//  904   DHT11();             //获取温湿度
//  905   
//  906   str[0] = wendu;//温度
//  907   str[1] = shidu;//湿度
//  908   len=2;
//  909   
//  910   sprintf(strTemp, "T&H:%d %d", str[0],str[1]);
//  911   HalLcdWriteString(strTemp, HAL_LCD_LINE_3); //LCD显示
//  912   
//  913   HalUARTWrite(0, strTemp, osal_strlen(strTemp));           //串口输出提示信息
//  914   HalUARTWrite(0, "\r\n",2);
//  915   
//  916   //无线发送到协调器
//  917   if ( AF_DataRequest( &SampleApp_P2P_DstAddr, &SampleApp_epDesc,
//  918                       SAMPLEAPP_P2P_CLUSTERID,
//  919                       len,
//  920                       str,
//  921                       &SampleApp_MsgID,
//  922                       AF_DISCV_ROUTE,
//  923                       AF_DEFAULT_RADIUS ) == afStatus_SUCCESS )
//  924   {
//  925   }
//  926   else
//  927   {
//  928     // Error occurred in request to send.
//  929   }
//  930 }
//  931 
//  932 void SampleApp_CallBack(uint8 port, uint8 event)
//  933 {
//  934   (void)port;
//  935   
//  936   HalUARTRead(SAMPLE_APP_PORT, SampleApp_RxBuf, 1);
//  937   
//  938 }
//  939 
//  940 
//  941 #endif
//  942 
//  943 
//  944 //调试信息输出

        RSEG BANKED_CODE:CODE:NOROOT(0)
//  945 void debug(uint8 * msg, ...)
debug:
        CFI Block cfiBlock9 Using cfiCommon0
        CFI Function debug
        CODE
//  946 {
        ; Saved register size: 0
        ; Auto size: 0
//  947 #if 0
//  948   uint8 len=0;
//  949   char info[100] = {0};
//  950   va_list args;
//  951   
//  952   if(msg==NULL) return;
//  953   
//  954   va_start(args, msg);
//  955   vsprintf(info, (const char*)msg, args);
//  956   va_end(args);
//  957   
//  958   len=osal_strlen((char *)info);
//  959   if(len==0) return;
//  960   
//  961   
//  962   HalUARTWrite(0,info, len);//串口0发送
//  963 #endif
//  964 }
        LJMP    ?BRET
        CFI EndBlock cfiBlock9
//  965 

        RSEG BANKED_CODE:CODE:NOROOT(0)
//  966 void SampleApp_getIEEEAddr(uint8* IEEEAddr)//length of IEEEAddr should be Z_EXTADDR_LEN*2
SampleApp_getIEEEAddr:
        CFI Block cfiBlock10 Using cfiCommon0
        CFI Function SampleApp_getIEEEAddr
        CODE
//  967 {
        MOV     A,#-0xc
        LCALL   ?BANKED_ENTER_XDATA
        CFI DPH0 load(1, XDATA, add(CFA_XSP16, literal(-1)))
        CFI DPL0 load(1, XDATA, add(CFA_XSP16, literal(-2)))
        CFI ?BRET_EXT load(1, XDATA, add(CFA_XSP16, literal(-3)))
        CFI ?RET_HIGH load(1, XDATA, add(CFA_XSP16, literal(-4)))
        CFI ?RET_LOW load(1, XDATA, add(CFA_XSP16, literal(-5)))
        CFI R7 load(1, XDATA, add(CFA_XSP16, literal(-6)))
        CFI V3 load(1, XDATA, add(CFA_XSP16, literal(-7)))
        CFI V2 load(1, XDATA, add(CFA_XSP16, literal(-8)))
        CFI V1 load(1, XDATA, add(CFA_XSP16, literal(-9)))
        CFI V0 load(1, XDATA, add(CFA_XSP16, literal(-10)))
        CFI VB load(1, XDATA, add(CFA_XSP16, literal(-11)))
        CFI R6 load(1, XDATA, add(CFA_XSP16, literal(-12)))
        CFI CFA_SP SP+0
        CFI CFA_XSP16 add(XSP16, 12)
        ; Saved register size: 12
        ; Auto size: 0
//  968   
//  969   uint8 i;
//  970   uint8 *xad;
//  971   //uint8 lcd_buf[Z_EXTADDR_LEN*2+1];
//  972   
//  973   // Display the extended address.
//  974   xad = aExtendedAddress + Z_EXTADDR_LEN - 1;
        MOV     R0,#(aExtendedAddress + 7) & 0xff
        MOV     R1,#((aExtendedAddress + 7) >> 8) & 0xff
//  975   
//  976   for (i = 0; i < Z_EXTADDR_LEN*2; xad--)
        MOV     R6,#0x0
??SampleApp_getIEEEAddr_0:
        MOV     A,R6
        CLR     C
        SUBB    A,#0x10
        JNC     ??SampleApp_getIEEEAddr_1
//  977   {
//  978     uint8 ch;
//  979     ch = (*xad >> 4) & 0x0F;
        MOV     DPL,R0
        MOV     DPH,R1
        MOVX    A,@DPTR
        SWAP    A
        ANL     A,#0xf
        MOV     R7,A
//  980     IEEEAddr[i++] = ch + (( ch < 10 ) ? '0' : '7');
        MOV     ?V0 + 2,R6
        MOV     A,#0x1
        ADD     A,?V0 + 2
        MOV     R6,A
        MOV     A,R7
        CLR     C
        SUBB    A,#0xa
        JNC     ??SampleApp_getIEEEAddr_2
        MOV     R4,#0x30
        MOV     R5,#0x0
        SJMP    ??SampleApp_getIEEEAddr_3
??SampleApp_getIEEEAddr_2:
        MOV     R4,#0x37
        MOV     R5,#0x0
??SampleApp_getIEEEAddr_3:
        MOV     A,R4
        ADD     A,R7
        PUSH    A
        CFI CFA_SP SP+-1
        MOV     ?V0 + 0,?V0 + 2
        MOV     ?V0 + 1,#0x0
        MOV     A,R2
        ADD     A,?V0 + 0
        MOV     DPL,A
        MOV     A,R3
        ADDC    A,?V0 + 1
        MOV     DPH,A
        POP     A
        CFI CFA_SP SP+0
        MOVX    @DPTR,A
//  981     ch = *xad & 0x0F;
        MOV     DPL,R0
        MOV     DPH,R1
        MOVX    A,@DPTR
        ANL     A,#0xf
        MOV     R7,A
//  982     IEEEAddr[i++] = ch + (( ch < 10 ) ? '0' : '7');
        MOV     ?V0 + 3,R6
        MOV     A,#0x1
        ADD     A,?V0 + 3
        MOV     R6,A
        MOV     A,R7
        CLR     C
        SUBB    A,#0xa
        JNC     ??SampleApp_getIEEEAddr_4
        MOV     R4,#0x30
        MOV     R5,#0x0
        SJMP    ??SampleApp_getIEEEAddr_5
??SampleApp_getIEEEAddr_4:
        MOV     R4,#0x37
        MOV     R5,#0x0
??SampleApp_getIEEEAddr_5:
        MOV     A,R4
        ADD     A,R7
        PUSH    A
        CFI CFA_SP SP+-1
        MOV     ?V0 + 0,?V0 + 3
        MOV     ?V0 + 1,#0x0
        MOV     A,R2
        ADD     A,?V0 + 0
        MOV     DPL,A
        MOV     A,R3
        ADDC    A,?V0 + 1
        MOV     DPH,A
        POP     A
        CFI CFA_SP SP+0
        MOVX    @DPTR,A
//  983   }
        MOV     A,R0
        ADD     A,#-0x1
        MOV     R0,A
        MOV     A,R1
        ADDC    A,#-0x1
        MOV     R1,A
        SJMP    ??SampleApp_getIEEEAddr_0
//  984   IEEEAddr[Z_EXTADDR_LEN*2] = '\0';
??SampleApp_getIEEEAddr_1:
        MOV     A,R2
        ADD     A,#0x10
        MOV     DPL,A
        MOV     A,R3
        ADDC    A,#0x0
        MOV     DPH,A
        MOV     A,#0x0
        MOVX    @DPTR,A
//  985 }
        MOV     R7,#0x4
        LJMP    ?BANKED_LEAVE_XDATA
        CFI EndBlock cfiBlock10
//  986 

        RSEG BANKED_CODE:CODE:NOROOT(0)
//  987 int SampleApp_SendPointToPointMessage(uint16 ReceiveAddr,uint16 DataId,uint8* SendData,uint16 Lens )//ReceiveAddr为接受设备的地址，DataId为数据识别码，4位16进制码，Lens仅写SendData长度即可
SampleApp_SendPointToPointMessage:
        CFI Block cfiBlock11 Using cfiCommon0
        CFI Function SampleApp_SendPointToPointMessage
        CODE
//  988 {
        FUNCALL SampleApp_SendPointToPointMessage, sprintf
        LOCFRAME ISTACK, 0, STACK
        LOCFRAME PSTACK, 0, STACK
        LOCFRAME XSTACK, 222, STACK
        LOCFRAME IOVERLAY, 0, STATIC
        LOCFRAME DOVERLAY, 0, STATIC
        ARGFRAME ISTACK, 0, STACK
        ARGFRAME PSTACK, 0, STACK
        ARGFRAME XSTACK, 222, STACK
        ARGFRAME IOVERLAY, 0, STATIC
        ARGFRAME DOVERLAY, 0, STATIC
        FUNCALL SampleApp_SendPointToPointMessage, printf
        LOCFRAME ISTACK, 0, STACK
        LOCFRAME PSTACK, 0, STACK
        LOCFRAME XSTACK, 218, STACK
        LOCFRAME IOVERLAY, 0, STATIC
        LOCFRAME DOVERLAY, 0, STATIC
        ARGFRAME ISTACK, 0, STACK
        ARGFRAME PSTACK, 0, STACK
        ARGFRAME XSTACK, 218, STACK
        ARGFRAME IOVERLAY, 0, STATIC
        ARGFRAME DOVERLAY, 0, STATIC
        FUNCALL SampleApp_SendPointToPointMessage, AF_DataRequest
        LOCFRAME ISTACK, 0, STACK
        LOCFRAME PSTACK, 0, STACK
        LOCFRAME XSTACK, 225, STACK
        LOCFRAME IOVERLAY, 0, STATIC
        LOCFRAME DOVERLAY, 0, STATIC
        ARGFRAME ISTACK, 0, STACK
        ARGFRAME PSTACK, 0, STACK
        ARGFRAME XSTACK, 225, STACK
        ARGFRAME IOVERLAY, 0, STATIC
        ARGFRAME DOVERLAY, 0, STATIC
        FUNCALL SampleApp_SendPointToPointMessage, printf
        LOCFRAME ISTACK, 0, STACK
        LOCFRAME PSTACK, 0, STACK
        LOCFRAME XSTACK, 218, STACK
        LOCFRAME IOVERLAY, 0, STATIC
        LOCFRAME DOVERLAY, 0, STATIC
        ARGFRAME ISTACK, 0, STACK
        ARGFRAME PSTACK, 0, STACK
        ARGFRAME XSTACK, 218, STACK
        ARGFRAME IOVERLAY, 0, STATIC
        ARGFRAME DOVERLAY, 0, STATIC
        MOV     A,#-0x10
        LCALL   ?BANKED_ENTER_XDATA
        CFI DPH0 load(1, XDATA, add(CFA_XSP16, literal(-1)))
        CFI DPL0 load(1, XDATA, add(CFA_XSP16, literal(-2)))
        CFI ?BRET_EXT load(1, XDATA, add(CFA_XSP16, literal(-3)))
        CFI ?RET_HIGH load(1, XDATA, add(CFA_XSP16, literal(-4)))
        CFI ?RET_LOW load(1, XDATA, add(CFA_XSP16, literal(-5)))
        CFI R7 load(1, XDATA, add(CFA_XSP16, literal(-6)))
        CFI V7 load(1, XDATA, add(CFA_XSP16, literal(-7)))
        CFI V6 load(1, XDATA, add(CFA_XSP16, literal(-8)))
        CFI V5 load(1, XDATA, add(CFA_XSP16, literal(-9)))
        CFI V4 load(1, XDATA, add(CFA_XSP16, literal(-10)))
        CFI V3 load(1, XDATA, add(CFA_XSP16, literal(-11)))
        CFI V2 load(1, XDATA, add(CFA_XSP16, literal(-12)))
        CFI V1 load(1, XDATA, add(CFA_XSP16, literal(-13)))
        CFI V0 load(1, XDATA, add(CFA_XSP16, literal(-14)))
        CFI VB load(1, XDATA, add(CFA_XSP16, literal(-15)))
        CFI R6 load(1, XDATA, add(CFA_XSP16, literal(-16)))
        CFI CFA_SP SP+0
        CFI CFA_XSP16 add(XSP16, 16)
        ; Saved register size: 16
        ; Auto size: 200
        MOV     A,#0x38
        LCALL   ?ALLOC_XSTACK8
        CFI CFA_XSP16 add(XSP16, 216)
        MOV     ?V0 + 0,R2
        MOV     ?V0 + 1,R3
        MOV     ?V0 + 6,R4
        MOV     ?V0 + 7,R5
        MOV     A,#-0x28
        LCALL   ?XSTACK_DISP0_8
        MOVX    A,@DPTR
        MOV     ?V0 + 4,A
        INC     DPTR
        MOVX    A,@DPTR
        MOV     ?V0 + 5,A
        MOV     A,#-0x26
        LCALL   ?XSTACK_DISP0_8
        MOVX    A,@DPTR
        MOV     R6,A
        INC     DPTR
        MOVX    A,@DPTR
        MOV     R7,A
//  989   //uint8 data[10]={'0','1','2','3','4','5','6','7','8','9'};//定义发送内容
//  990   //uint8 data[10]="0123456789";//上述方式二选一 
//  991   SampleApp_P2P_DstAddr.addr.shortAddr = ReceiveAddr;
        MOV     DPTR,#SampleApp_P2P_DstAddr
        MOV     A,?V0 + 0
        MOVX    @DPTR,A
        INC     DPTR
        MOV     A,?V0 + 1
        MOVX    @DPTR,A
//  992   uint8 FinalSendData[200]={0};
        MOV     DPTR,#`?<Constant {0}>_6`
        PUSH    DPL
        CFI CFA_SP SP+-1
        PUSH    DPH
        CFI CFA_SP SP+-2
        MOV     DPL,?XSP + 0
        MOV     DPH,?XSP + 1
        MOV     R4,DPL
        MOV     R5,DPH
        POP     DPH
        CFI CFA_SP SP+-1
        POP     DPL
        CFI CFA_SP SP+0
        MOV     A,#-0x38
        LCALL   ?MOVE_LONG8_XDATA_XDATA
//  993   sprintf((char*)FinalSendData,"%4x%4d%s",DataId,Lens+8,(char*)SendData);
        ; Setup parameters for call to function sprintf
        MOV     R0,#?V0 + 4
        LCALL   ?PUSH_XSTACK_I_TWO
        CFI CFA_XSP16 add(XSP16, 218)
        MOV     A,R6
        ADD     A,#0x8
        MOV     ?V0 + 2,A
        MOV     A,R7
        ADDC    A,#0x0
        MOV     ?V0 + 3,A
        MOV     R0,#?V0 + 2
        LCALL   ?PUSH_XSTACK_I_TWO
        CFI CFA_XSP16 add(XSP16, 220)
        MOV     R0,#?V0 + 6
        LCALL   ?PUSH_XSTACK_I_TWO
        CFI CFA_XSP16 add(XSP16, 222)
        MOV     R4,#`?<Constant "%4x%4d%s">` & 0xff
        MOV     R5,#(`?<Constant "%4x%4d%s">` >> 8) & 0xff
        MOV     A,#0x6
        LCALL   ?XSTACK_DISP0_8
        MOV     R2,DPL
        MOV     R3,DPH
        LCALL   ??sprintf?relay
        MOV     A,#0x6
        LCALL   ?DEALLOC_XSTACK8
        CFI CFA_XSP16 add(XSP16, 216)
//  994   printf("FinalSendData:%s\n",FinalSendData);
        ; Setup parameters for call to function printf
        MOV     DPL,?XSP + 0
        MOV     DPH,?XSP + 1
        MOV     ?V0 + 2,DPL
        MOV     ?V0 + 3,DPH
        MOV     R0,#?V0 + 2
        LCALL   ?PUSH_XSTACK_I_TWO
        CFI CFA_XSP16 add(XSP16, 218)
        MOV     R2,#`?<Constant "FinalSendData:%s\\n">` & 0xff
        MOV     R3,#(`?<Constant "FinalSendData:%s\\n">` >> 8) & 0xff
        LCALL   ??printf?relay
        MOV     A,#0x2
        LCALL   ?DEALLOC_XSTACK8
        CFI CFA_XSP16 add(XSP16, 216)
//  995   int result = AF_DataRequest(&SampleApp_P2P_DstAddr,&SampleApp_epDesc,
//  996                               SAMPLEAPP_P2P_CLUSTERID,
//  997                               Lens+8,
//  998                               FinalSendData,
//  999                               &SampleApp_TransID,
// 1000                               AF_DISCV_ROUTE,
// 1001                               AF_DEFAULT_RADIUS);
        ; Setup parameters for call to function AF_DataRequest
        MOV     ?V0 + 2,#0x1e
        MOV     R0,#?V0 + 2
        LCALL   ?PUSH_XSTACK_I_ONE
        CFI CFA_XSP16 add(XSP16, 217)
        MOV     ?V0 + 2,#SampleApp_TransID & 0xff
        MOV     ?V0 + 3,#(SampleApp_TransID >> 8) & 0xff
        MOV     R0,#?V0 + 2
        LCALL   ?PUSH_XSTACK_I_TWO
        CFI CFA_XSP16 add(XSP16, 219)
        MOV     A,#0x3
        LCALL   ?XSTACK_DISP0_8
        MOV     ?V0 + 2,DPL
        MOV     ?V0 + 3,DPH
        MOV     R0,#?V0 + 2
        LCALL   ?PUSH_XSTACK_I_TWO
        CFI CFA_XSP16 add(XSP16, 221)
        MOV     A,R6
        ADD     A,#0x8
        MOV     ?V0 + 2,A
        MOV     A,R7
        ADDC    A,#0x0
        MOV     ?V0 + 3,A
        MOV     R0,#?V0 + 2
        LCALL   ?PUSH_XSTACK_I_TWO
        CFI CFA_XSP16 add(XSP16, 223)
        MOV     ?V0 + 2,#0x1
        MOV     ?V0 + 3,#0x0
        MOV     R0,#?V0 + 2
        LCALL   ?PUSH_XSTACK_I_TWO
        CFI CFA_XSP16 add(XSP16, 225)
        MOV     R1,#0x20
        MOV     R4,#SampleApp_epDesc & 0xff
        MOV     R5,#(SampleApp_epDesc >> 8) & 0xff
        MOV     R2,#SampleApp_P2P_DstAddr & 0xff
        MOV     R3,#(SampleApp_P2P_DstAddr >> 8) & 0xff
        LCALL   ??AF_DataRequest?relay
        MOV     A,#0x9
        LCALL   ?DEALLOC_XSTACK8
        CFI CFA_XSP16 add(XSP16, 216)
        MOV     A,R1
        MOV     ?V0 + 2,A
        MOV     ?V0 + 3,#0x0
// 1002   if(result == afStatus_SUCCESS)
        MOV     A,?V0 + 2
        ORL     A,?V0 + 3
        JNZ     ??SampleApp_SendPointToPointMessage_0
// 1003   {
// 1004     return 0;
        MOV     R2,#0x0
        MOV     R3,#0x0
        SJMP    ??SampleApp_SendPointToPointMessage_1
// 1005   }
// 1006   else
// 1007   {
// 1008     printf("%d",result);
??SampleApp_SendPointToPointMessage_0:
        ; Setup parameters for call to function printf
        MOV     R0,#?V0 + 2
        LCALL   ?PUSH_XSTACK_I_TWO
        CFI CFA_XSP16 add(XSP16, 218)
        MOV     R2,#`?<Constant "%d">` & 0xff
        MOV     R3,#(`?<Constant "%d">` >> 8) & 0xff
        LCALL   ??printf?relay
        MOV     A,#0x2
        LCALL   ?DEALLOC_XSTACK8
        CFI CFA_XSP16 add(XSP16, 216)
// 1009     return result;
        MOV     R2,?V0 + 2
        MOV     R3,?V0 + 3
??SampleApp_SendPointToPointMessage_1:
        MOV     A,#-0x38
        LCALL   ?DEALLOC_XSTACK8
        CFI CFA_XSP16 add(XSP16, 16)
        MOV     R7,#0x8
        LJMP    ?BANKED_LEAVE_XDATA
        CFI EndBlock cfiBlock11
// 1010     // Error occurred in request to send.
// 1011   }
// 1012 }

        RSEG XDATA_ID:CODE:NOROOT(0)
`?<Initializer for SampleApp_epDesc>`:
        DATA8
        DB 11
        DATA16
        DW SampleApp_TaskID
        DW SampleApp_SimpleDesc
        DATA8
        DB 0

        RSEG XDATA_ID:CODE:NOROOT(0)
`?<Initializer for DevicesIEEEAddr>`:
        DB "00124B0006F7E953"
        DB "00124B0006F78A1F"
        DB "00124B0006F7EAFD"
        DB "00124B001FBE1D86"

        RSEG XDATA_ID:CODE:NOROOT(0)
`?<Initializer for DevicesShortAddr>`:
        DATA16
        DW 65535
        DW 65535
        DW 65535
        DW 65535

        RSEG XDATA_ID:CODE:NOROOT(0)
`?<Initializer for NwkAddr>`:
        DATA16
        DW 65535

        RSEG BANK_RELAYS:CODE:REORDER:NOROOT(0)
??SampleApp_Init?relay:
        LCALL   ?BDISPATCH
        DATA
        DC24    SampleApp_Init

        RSEG BANK_RELAYS:CODE:REORDER:NOROOT(0)
??SampleApp_HandleKeys?relay:
        LCALL   ?BDISPATCH
        DATA
        DC24    SampleApp_HandleKeys

        RSEG BANK_RELAYS:CODE:REORDER:NOROOT(0)
??SampleApp_ProcessEvent?relay:
        LCALL   ?BDISPATCH
        DATA
        DC24    SampleApp_ProcessEvent

        RSEG BANK_RELAYS:CODE:REORDER:NOROOT(0)
??SampleApp_ProcessMSGCmd?relay:
        LCALL   ?BDISPATCH
        DATA
        DC24    SampleApp_ProcessMSGCmd

        RSEG BANK_RELAYS:CODE:REORDER:NOROOT(0)
??ESP8266_SendData?relay:
        LCALL   ?BDISPATCH
        DATA
        DC24    ESP8266_SendData

        RSEG BANK_RELAYS:CODE:REORDER:NOROOT(0)
??mqtt_rx?relay:
        LCALL   ?BDISPATCH
        DATA
        DC24    mqtt_rx

        RSEG BANK_RELAYS:CODE:REORDER:NOROOT(0)
??Response2mqtt?relay:
        LCALL   ?BDISPATCH
        DATA
        DC24    Response2mqtt

        RSEG BANK_RELAYS:CODE:REORDER:NOROOT(0)
??OneNet_publish_topic?relay:
        LCALL   ?BDISPATCH
        DATA
        DC24    OneNet_publish_topic

        RSEG BANK_RELAYS:CODE:REORDER:NOROOT(0)
??SampleApp_CallBack?relay:
        LCALL   ?BDISPATCH
        DATA
        DC24    SampleApp_CallBack

        RSEG BANK_RELAYS:CODE:REORDER:NOROOT(0)
??debug?relay:
        LCALL   ?BDISPATCH
        DATA
        DC24    debug

        RSEG BANK_RELAYS:CODE:REORDER:NOROOT(0)
??SampleApp_getIEEEAddr?relay:
        LCALL   ?BDISPATCH
        DATA
        DC24    SampleApp_getIEEEAddr

        RSEG BANK_RELAYS:CODE:REORDER:NOROOT(0)
??SampleApp_SendPointToPointMessage?relay:
        LCALL   ?BDISPATCH
        DATA
        DC24    SampleApp_SendPointToPointMessage

        RSEG XDATA_ROM_C:CONST:REORDER:NOROOT(0)
        DATA8
`?<Constant "/a1xaMw4YerO/device/u...">`:
        DB "/a1xaMw4YerO/device/user/transfer"

        RSEG XDATA_ROM_C:CONST:REORDER:NOROOT(0)
        DATA8
`?<Constant "/a1xaMw4YerO/device/u...">_1`:
        DB "/a1xaMw4YerO/device/user/receive"

        RSEG XDATA_ROM_C:CONST:REORDER:NOROOT(0)
        DATA8
`?<Constant "Group 1">`:
        DB "Group 1"

        RSEG XDATA_ROM_C:CONST:REORDER:NOROOT(0)
        DATA8
`?<Constant "SampleApp">`:
        DB "SampleApp"

        RSEG XDATA_ROM_C:CONST:REORDER:NOROOT(0)
        DATA8
`?<Constant "1002 msg">`:
        DB "1002 msg"

        RSEG XDATA_ROM_C:CONST:REORDER:NOROOT(0)
        DATA8
`?<Constant "1004 msg">`:
        DB "1004 msg"

        RSEG XDATA_ROM_C:CONST:REORDER:NOROOT(0)
        DATA8
`?<Constant "{\\"method\\":\\"thing.serv...">`:
        DB 7BH, 22H, 6DH, 65H, 74H, 68H, 6FH, 64H
        DB 22H, 3AH, 22H, 74H, 68H, 69H, 6EH, 67H
        DB 2EH, 73H, 65H, 72H, 76H, 69H, 63H, 65H
        DB 2EH, 70H, 72H, 6FH, 70H, 65H, 72H, 74H
        DB 79H, 2EH, 73H, 65H, 74H, 22H, 2CH, 22H
        DB 69H, 64H, 22H, 3AH, 22H, 36H, 33H, 30H
        DB 32H, 36H, 32H, 33H, 30H, 36H, 22H, 2CH
        DB 22H, 70H, 61H, 72H, 61H, 6DH, 73H, 22H
        DB 3AH, 7BH, 20H, 20H, 20H, 20H, 20H, 20H
        DB 20H, 20H, 20H, 20H, 20H, 20H, 20H, 20H
        DB 20H, 20H, 22H, 63H, 6FH, 64H, 65H, 22H
        DB 3AH, 32H, 2CH, 20H, 20H, 20H, 20H, 7DH
        DB 2CH, 22H, 76H, 65H, 72H, 73H, 69H, 6FH
        DB 6EH, 22H, 3AH, 22H, 31H, 2EH, 30H, 2EH
        DB 30H, 22H, 7DH, 0

        RSEG XDATA_ROM_C:CONST:REORDER:NOROOT(0)
        DATA8
`?<Constant "get coord">`:
        DB "get coord"

        RSEG XDATA_ROM_C:CONST:REORDER:NOROOT(0)
        DATA8
`?<Constant "lost coord">`:
        DB "lost coord"

        RSEG XDATA_ROM_C:CONST:REORDER:NOROOT(0)
        DATA8
`?<Constant "{\\"flow\\":201,        \\"...">`:
        DB 7BH, 22H, 66H, 6CH, 6FH, 77H, 22H, 3AH
        DB 32H, 30H, 31H, 2CH, 20H, 20H, 20H, 20H
        DB 20H, 20H, 20H, 20H, 22H, 6DH, 73H, 67H
        DB 22H, 3AH, 7BH, 20H, 20H, 20H, 20H, 20H
        DB 20H, 20H, 20H, 20H, 20H, 22H, 64H, 65H
        DB 76H, 31H, 22H, 3AH, 25H, 64H, 2CH, 20H
        DB 20H, 20H, 20H, 20H, 20H, 20H, 20H, 20H
        DB 20H, 20H, 20H, 22H, 64H, 65H, 76H, 32H
        DB 22H, 3AH, 25H, 64H, 2CH, 20H, 20H, 20H
        DB 20H, 20H, 20H, 20H, 20H, 20H, 20H, 20H
        DB 20H, 20H, 20H, 22H, 64H, 65H, 76H, 33H
        DB 22H, 3AH, 25H, 64H, 2CH, 20H, 20H, 20H
        DB 20H, 7DH, 7DH, 0

        RSEG XDATA_ROM_C:CONST:REORDER:NOROOT(0)
        DATA8
`?<Constant {0}>`:
        DB 0
        DB 0, 0, 0, 0, 0, 0, 0, 0
        DB 0, 0, 0, 0, 0, 0, 0, 0
        DB 0, 0, 0, 0, 0, 0, 0, 0
        DB 0, 0, 0, 0, 0, 0, 0, 0
        DB 0, 0, 0, 0, 0, 0, 0

        RSEG XDATA_ROM_C:CONST:REORDER:NOROOT(0)
        DATA8
`?<Constant "device%d %d\\n">`:
        DB "device%d %d\012"

        RSEG XDATA_ROM_C:CONST:REORDER:NOROOT(0)
        DATA8
`?<Constant {0}>_1`:
        DB 0
        DB 0, 0, 0, 0, 0, 0, 0, 0
        DB 0, 0, 0, 0, 0, 0, 0, 0
        DB 0, 0, 0, 0, 0, 0, 0, 0
        DB 0, 0, 0, 0, 0, 0, 0, 0
        DB 0, 0, 0, 0, 0, 0, 0, 0
        DB 0, 0, 0, 0, 0, 0, 0, 0
        DB 0

        RSEG XDATA_ROM_C:CONST:REORDER:NOROOT(0)
        DATA8
`?<Constant "MqttRecMsg:%s\\n">`:
        DB "MqttRecMsg:%s\012"

        RSEG XDATA_ROM_C:CONST:REORDER:NOROOT(0)
        DATA8
`?<Constant "\\"}">`:
        DB "\"}"

        RSEG XDATA_ROM_C:CONST:REORDER:NOROOT(0)
        DATA8
`?<Constant "\\"msg\\":\\"">`:
        DB "\"msg\":\""

        RSEG XDATA_ROM_C:CONST:REORDER:NOROOT(0)
        DATA8
`?<Constant "\\",\\"flow\\"">`:
        DB "\",\"flow\""

        RSEG XDATA_ROM_C:CONST:REORDER:NOROOT(0)
        DATA8
`?<Constant "dev0,">`:
        DB "dev0,"

        RSEG XDATA_ROM_C:CONST:REORDER:NOROOT(0)
        DATA8
`?<Constant "dev1,">`:
        DB "dev1,"

        RSEG XDATA_ROM_C:CONST:REORDER:NOROOT(0)
        DATA8
`?<Constant "dev2,">`:
        DB "dev2,"

        RSEG XDATA_ROM_C:CONST:REORDER:NOROOT(0)
        DATA8
`?<Constant "dev3,">`:
        DB "dev3,"

        RSEG XDATA_ROM_C:CONST:REORDER:NOROOT(0)
        DATA8
`?<Constant {0}>_2`:
        DB 0
        DB 0, 0, 0, 0, 0, 0, 0, 0
        DB 0, 0, 0, 0, 0, 0, 0, 0
        DB 0, 0, 0, 0, 0, 0, 0, 0
        DB 0, 0, 0, 0, 0, 0, 0, 0
        DB 0, 0, 0, 0, 0, 0, 0, 0
        DB 0, 0, 0, 0, 0, 0, 0, 0
        DB 0, 0, 0, 0, 0, 0, 0, 0
        DB 0, 0, 0, 0, 0, 0, 0, 0
        DB 0, 0, 0, 0, 0, 0, 0, 0
        DB 0, 0, 0, 0, 0, 0, 0, 0
        DB 0, 0, 0, 0, 0, 0, 0, 0
        DB 0, 0, 0, 0, 0, 0, 0, 0
        DB 0, 0, 0, 0, 0, 0, 0, 0
        DB 0, 0, 0, 0, 0, 0, 0, 0
        DB 0, 0, 0, 0, 0, 0, 0, 0
        DB 0, 0, 0, 0, 0, 0, 0, 0
        DB 0, 0, 0, 0, 0, 0, 0, 0
        DB 0, 0, 0, 0, 0, 0, 0, 0
        DB 0, 0, 0, 0, 0, 0, 0, 0
        DB 0, 0, 0, 0, 0, 0, 0, 0
        DB 0, 0, 0, 0, 0, 0, 0, 0
        DB 0, 0, 0, 0, 0, 0, 0, 0
        DB 0, 0, 0, 0, 0, 0, 0, 0
        DB 0, 0, 0, 0, 0, 0, 0, 0
        DB 0, 0, 0, 0, 0, 0, 0

        RSEG XDATA_ROM_C:CONST:REORDER:NOROOT(0)
        DATA32
`?<Constant "%4d">`:
        DB "%4d"

        RSEG XDATA_ROM_C:CONST:REORDER:NOROOT(0)
        DATA8
`?<Constant "%s">`:
        DB "%s"

        RSEG XDATA_ROM_C:CONST:REORDER:NOROOT(0)
        DATA8
`?<Constant "device %d linked">`:
        DB "device %d linked"

        RSEG XDATA_ROM_C:CONST:REORDER:NOROOT(0)
        DATA8
`?<Constant "{\\"flow\\":201,\\"msg\\":\\"%s...">`:
        DB "{\"flow\":201,\"msg\":\"%s Linked\"}"

        RSEG XDATA_ROM_C:CONST:REORDER:NOROOT(0)
        DATA8
`?<Constant "switch1,1">`:
        DB "switch1,1"

        RSEG XDATA_ROM_C:CONST:REORDER:NOROOT(0)
        DATA8
`?<Constant "switch1,0">`:
        DB "switch1,0"

        RSEG XDATA_ROM_C:CONST:REORDER:NOROOT(0)
        DATA8
`?<Constant "switch2,1">`:
        DB "switch2,1"

        RSEG XDATA_ROM_C:CONST:REORDER:NOROOT(0)
        DATA8
`?<Constant "switch2,0">`:
        DB "switch2,0"

        RSEG XDATA_ROM_C:CONST:REORDER:NOROOT(0)
        DATA8
`?<Constant "switch1,ck">`:
        DB "switch1,ck"

        RSEG XDATA_ROM_C:CONST:REORDER:NOROOT(0)
        DATA8
`?<Constant "%s%d">`:
        DB "%s%d"

        RSEG XDATA_ROM_C:CONST:REORDER:NOROOT(0)
        DATA8
`?<Constant "switch2,ck">`:
        DB "switch2,ck"

        RSEG XDATA_ROM_C:CONST:REORDER:NOROOT(0)
        DATA8
`?<Constant "{\\"method\\":\\"thing.serv...">_1`:
        DB 7BH, 22H, 6DH, 65H, 74H, 68H, 6FH, 64H
        DB 22H, 3AH, 22H, 74H, 68H, 69H, 6EH, 67H
        DB 2EH, 73H, 65H, 72H, 76H, 69H, 63H, 65H
        DB 2EH, 70H, 72H, 6FH, 70H, 65H, 72H, 74H
        DB 79H, 2EH, 73H, 65H, 74H, 22H, 2CH, 22H
        DB 69H, 64H, 22H, 3AH, 22H, 36H, 33H, 30H
        DB 32H, 36H, 32H, 33H, 30H, 36H, 22H, 2CH
        DB 22H, 70H, 61H, 72H, 61H, 6DH, 73H, 22H
        DB 3AH, 7BH, 20H, 20H, 20H, 20H, 20H, 20H
        DB 20H, 20H, 20H, 20H, 20H, 20H, 20H, 20H
        DB 20H, 20H, 20H, 20H, 22H, 63H, 6FH, 64H
        DB 65H, 22H, 3AH, 22H, 25H, 73H, 22H, 20H
        DB 20H, 20H, 20H, 20H, 20H, 7DH, 2CH, 22H
        DB 76H, 65H, 72H, 73H, 69H, 6FH, 6EH, 22H
        DB 3AH, 22H, 31H, 2EH, 30H, 2EH, 30H, 22H
        DB 7DH, 0

        RSEG XDATA_ROM_C:CONST:REORDER:NOROOT(0)
        DATA8
`?<Constant {0}>_3`:
        DB 0
        DB 0, 0, 0, 0, 0, 0, 0, 0
        DB 0, 0, 0, 0, 0, 0, 0, 0
        DB 0, 0, 0, 0, 0, 0, 0, 0
        DB 0, 0, 0, 0, 0, 0, 0, 0
        DB 0, 0, 0, 0, 0, 0, 0, 0
        DB 0, 0, 0, 0, 0, 0, 0, 0
        DB 0, 0, 0, 0, 0, 0, 0, 0
        DB 0, 0, 0, 0, 0, 0, 0, 0
        DB 0, 0, 0, 0, 0, 0, 0, 0
        DB 0, 0, 0, 0, 0, 0, 0, 0
        DB 0, 0, 0, 0, 0, 0, 0, 0
        DB 0, 0, 0, 0, 0, 0, 0, 0
        DB 0, 0, 0

        RSEG XDATA_ROM_C:CONST:REORDER:NOROOT(0)
        DATA8
`?<Constant {0}>_4`:
        DB 0
        DB 0, 0, 0, 0, 0, 0, 0, 0
        DB 0, 0, 0, 0, 0, 0, 0, 0
        DB 0, 0, 0, 0, 0, 0, 0, 0
        DB 0, 0, 0, 0, 0, 0, 0, 0
        DB 0, 0, 0, 0, 0, 0, 0, 0
        DB 0, 0, 0, 0, 0, 0, 0, 0
        DB 0, 0, 0, 0, 0, 0, 0, 0
        DB 0, 0, 0, 0, 0, 0, 0, 0
        DB 0, 0, 0, 0, 0, 0, 0, 0
        DB 0, 0, 0, 0, 0, 0, 0, 0
        DB 0, 0, 0, 0, 0, 0, 0, 0
        DB 0, 0, 0, 0, 0, 0, 0, 0
        DB 0, 0, 0

        RSEG XDATA_ROM_C:CONST:REORDER:NOROOT(0)
        DATA8
`?<Constant {0}>_5`:
        DB 0
        DB 0, 0, 0, 0, 0, 0, 0, 0
        DB 0, 0, 0, 0, 0, 0, 0, 0
        DB 0, 0, 0, 0, 0, 0, 0, 0
        DB 0, 0, 0, 0, 0, 0, 0, 0
        DB 0, 0, 0, 0, 0, 0, 0, 0
        DB 0, 0, 0, 0, 0, 0, 0, 0
        DB 0, 0, 0, 0, 0, 0, 0, 0
        DB 0, 0, 0, 0, 0, 0, 0, 0
        DB 0, 0, 0, 0, 0, 0, 0, 0
        DB 0, 0, 0, 0, 0, 0, 0, 0
        DB 0, 0, 0, 0, 0, 0, 0, 0
        DB 0, 0, 0, 0, 0, 0, 0, 0
        DB 0, 0, 0

        RSEG XDATA_ROM_C:CONST:REORDER:NOROOT(0)
        DATA8
`?<Constant "receive">`:
        DB "receive"

        RSEG XDATA_ROM_C:CONST:REORDER:NOROOT(0)
        DATA8
`?<Constant "too many msg, hold on">`:
        DB "too many msg, hold on"

        RSEG XDATA_ROM_C:CONST:REORDER:NOROOT(0)
        DATA8
`?<Constant "too many msg">`:
        DB "too many msg"

        RSEG XDATA_ROM_C:CONST:REORDER:NOROOT(0)
        DATA8
`?<Constant "{\\"msg\\":\\"%s\\",\\"flow\\":201}">`:
        DB "{\"msg\":\"%s\",\"flow\":201}"

        RSEG XDATA_ROM_C:CONST:REORDER:NOROOT(0)
        DATA8
`?<Constant "rx len=%d(%x,%x,%x,%x)\\r\\n">`:
        DB "rx len=%d(%x,%x,%x,%x)\015\012"

        RSEG XDATA_ROM_C:CONST:REORDER:NOROOT(0)
        DATA8
`?<Constant "rx len=%d.\\r\\n">`:
        DB "rx len=%d.\015\012"

        RSEG XDATA_ROM_C:CONST:REORDER:NOROOT(0)
        DATA8
`?<Constant {0}>_6`:
        DB 0
        DB 0, 0, 0, 0, 0, 0, 0, 0
        DB 0, 0, 0, 0, 0, 0, 0, 0
        DB 0, 0, 0, 0, 0, 0, 0, 0
        DB 0, 0, 0, 0, 0, 0, 0, 0
        DB 0, 0, 0, 0, 0, 0, 0, 0
        DB 0, 0, 0, 0, 0, 0, 0, 0
        DB 0, 0, 0, 0, 0, 0, 0, 0
        DB 0, 0, 0, 0, 0, 0, 0, 0
        DB 0, 0, 0, 0, 0, 0, 0, 0
        DB 0, 0, 0, 0, 0, 0, 0, 0
        DB 0, 0, 0, 0, 0, 0, 0, 0
        DB 0, 0, 0, 0, 0, 0, 0, 0
        DB 0, 0, 0, 0, 0, 0, 0, 0
        DB 0, 0, 0, 0, 0, 0, 0, 0
        DB 0, 0, 0, 0, 0, 0, 0, 0
        DB 0, 0, 0, 0, 0, 0, 0, 0
        DB 0, 0, 0, 0, 0, 0, 0, 0
        DB 0, 0, 0, 0, 0, 0, 0, 0
        DB 0, 0, 0, 0, 0, 0, 0, 0
        DB 0, 0, 0, 0, 0, 0, 0, 0
        DB 0, 0, 0, 0, 0, 0, 0, 0
        DB 0, 0, 0, 0, 0, 0, 0, 0
        DB 0, 0, 0, 0, 0, 0, 0, 0
        DB 0, 0, 0, 0, 0, 0, 0, 0
        DB 0, 0, 0, 0, 0, 0, 0

        RSEG XDATA_ROM_C:CONST:REORDER:NOROOT(0)
        DATA8
`?<Constant "%4x%4d%s">`:
        DB "%4x%4d%s"

        RSEG XDATA_ROM_C:CONST:REORDER:NOROOT(0)
        DATA8
`?<Constant "FinalSendData:%s\\n">`:
        DB "FinalSendData:%s\012"

        RSEG XDATA_ROM_C:CONST:REORDER:NOROOT(0)
        DATA8
`?<Constant "%d">`:
        DB "%d"

        RSEG XDATA_ROM_C:CONST:REORDER:NOROOT(0)
        DATA32
__Constant_3e8:
        DD 1000

        END
// 
// 5 016 bytes in segment BANKED_CODE
//    72 bytes in segment BANK_RELAYS
//     2 bytes in segment SFR_AN
//    84 bytes in segment XDATA_I
//    84 bytes in segment XDATA_ID
// 1 603 bytes in segment XDATA_ROM_C
//   950 bytes in segment XDATA_Z
// 
// 5 172 bytes of CODE  memory
// 1 599 bytes of CONST memory (+ 4 bytes shared)
//     0 bytes of DATA  memory (+ 2 bytes shared)
// 1 034 bytes of XDATA memory
//
//Errors: none
//Warnings: 63
